ccopy_reg
_reconstructor
p0
(cdedupe.datamodel
DataModel
p1
c__builtin__
dict
p2
(dp3
S'fields'
p4
(lp5
g0
(cdedupe.variables.string
StringType
p6
c__builtin__
object
p7
Ntp8
Rp9
(dp10
S'predicates'
p11
(lp12
g0
(cdedupe.predicates
SimplePredicate
p13
g7
Ntp14
Rp15
(dp16
S'__name__'
p17
S'(wholeFieldPredicate, FIRST_NAME)'
p18
sS'func'
p19
cdedupe.predicates
wholeFieldPredicate
p20
sS'field'
p21
S'FIRST_NAME'
p22
sbag0
(g13
g7
Ntp23
Rp24
(dp25
g17
S'(firstTokenPredicate, FIRST_NAME)'
p26
sg19
cdedupe.predicates
firstTokenPredicate
p27
sg21
g22
sbag0
(g13
g7
Ntp28
Rp29
(dp30
g17
S'(commonIntegerPredicate, FIRST_NAME)'
p31
sg19
cdedupe.predicates
commonIntegerPredicate
p32
sg21
g22
sbag0
(g13
g7
Ntp33
Rp34
(dp35
g17
S'(nearIntegersPredicate, FIRST_NAME)'
p36
sg19
cdedupe.predicates
nearIntegersPredicate
p37
sg21
g22
sbag0
(g13
g7
Ntp38
Rp39
(dp40
g17
S'(firstIntegerPredicate, FIRST_NAME)'
p41
sg19
cdedupe.predicates
firstIntegerPredicate
p42
sg21
g22
sbag0
(g13
g7
Ntp43
Rp44
(dp45
g17
S'(sameThreeCharStartPredicate, FIRST_NAME)'
p46
sg19
cdedupe.predicates
sameThreeCharStartPredicate
p47
sg21
g22
sbag0
(g13
g7
Ntp48
Rp49
(dp50
g17
S'(sameFiveCharStartPredicate, FIRST_NAME)'
p51
sg19
cdedupe.predicates
sameFiveCharStartPredicate
p52
sg21
g22
sbag0
(g13
g7
Ntp53
Rp54
(dp55
g17
S'(sameSevenCharStartPredicate, FIRST_NAME)'
p56
sg19
cdedupe.predicates
sameSevenCharStartPredicate
p57
sg21
g22
sbag0
(g13
g7
Ntp58
Rp59
(dp60
g17
S'(commonTwoTokens, FIRST_NAME)'
p61
sg19
cdedupe.predicates
commonTwoTokens
p62
sg21
g22
sbag0
(g13
g7
Ntp63
Rp64
(dp65
g17
S'(commonThreeTokens, FIRST_NAME)'
p66
sg19
cdedupe.predicates
commonThreeTokens
p67
sg21
g22
sbag0
(g13
g7
Ntp68
Rp69
(dp70
g17
S'(fingerprint, FIRST_NAME)'
p71
sg19
cdedupe.predicates
fingerprint
p72
sg21
g22
sbag0
(g13
g7
Ntp73
Rp74
(dp75
g17
S'(oneGramFingerprint, FIRST_NAME)'
p76
sg19
cdedupe.predicates
oneGramFingerprint
p77
sg21
g22
sbag0
(g13
g7
Ntp78
Rp79
(dp80
g17
S'(twoGramFingerprint, FIRST_NAME)'
p81
sg19
cdedupe.predicates
twoGramFingerprint
p82
sg21
g22
sbag0
(g13
g7
Ntp83
Rp84
(dp85
g17
S'(sortedAcronym, FIRST_NAME)'
p86
sg19
cdedupe.predicates
sortedAcronym
p87
sg21
g22
sbag0
(g13
g7
Ntp88
Rp89
(dp90
g17
S'(commonFourGram, FIRST_NAME)'
p91
sg19
cdedupe.predicates
commonFourGram
p92
sg21
g22
sbag0
(g13
g7
Ntp93
Rp94
(dp95
g17
S'(commonSixGram, FIRST_NAME)'
p96
sg19
cdedupe.predicates
commonSixGram
p97
sg21
g22
sbag0
(g13
g7
Ntp98
Rp99
(dp100
g17
S'(tokenFieldPredicate, FIRST_NAME)'
p101
sg19
cdedupe.predicates
tokenFieldPredicate
p102
sg21
g22
sbag0
(g13
g7
Ntp103
Rp104
(dp105
g17
S'(suffixArray, FIRST_NAME)'
p106
sg19
cdedupe.predicates
suffixArray
p107
sg21
g22
sbag0
(g13
g7
Ntp108
Rp109
(dp110
g17
S'(doubleMetaphone, FIRST_NAME)'
p111
sg19
cdedupe.predicates
doubleMetaphone
p112
sg21
g22
sbag0
(g13
g7
Ntp113
Rp114
(dp115
g17
S'(metaphoneToken, FIRST_NAME)'
p116
sg19
cdedupe.predicates
metaphoneToken
p117
sg21
g22
sbag0
(cdedupe.predicates
TfidfNGramCanopyPredicate
p118
g7
Ntp119
Rp120
(dp121
S'threshold'
p122
F0.2
sg17
S'(0.2, FIRST_NAME)'
p123
sg21
g22
sbag0
(g118
g7
Ntp124
Rp125
(dp126
g122
F0.4
sg17
S'(0.4, FIRST_NAME)'
p127
sg21
g22
sbag0
(g118
g7
Ntp128
Rp129
(dp130
g122
F0.6
sg17
S'(0.6, FIRST_NAME)'
p131
sg21
g22
sbag0
(g118
g7
Ntp132
Rp133
(dp134
g122
F0.8
sg17
S'(0.8, FIRST_NAME)'
p135
sg21
g22
sbag0
(cdedupe.predicates
TfidfNGramSearchPredicate
p136
g7
Ntp137
Rp138
(dp139
g122
F0.2
sg17
S'(0.2, FIRST_NAME)'
p140
sg21
g22
sbag0
(g136
g7
Ntp141
Rp142
(dp143
g122
F0.4
sg17
S'(0.4, FIRST_NAME)'
p144
sg21
g22
sbag0
(g136
g7
Ntp145
Rp146
(dp147
g122
F0.6
sg17
S'(0.6, FIRST_NAME)'
p148
sg21
g22
sbag0
(g136
g7
Ntp149
Rp150
(dp151
g122
F0.8
sg17
S'(0.8, FIRST_NAME)'
p152
sg21
g22
sbag0
(cdedupe.predicates
TfidfTextCanopyPredicate
p153
g7
Ntp154
Rp155
(dp156
g122
F0.2
sg17
S'(0.2, FIRST_NAME)'
p157
sg21
g22
sbag0
(g153
g7
Ntp158
Rp159
(dp160
g122
F0.4
sg17
S'(0.4, FIRST_NAME)'
p161
sg21
g22
sbag0
(g153
g7
Ntp162
Rp163
(dp164
g122
F0.6
sg17
S'(0.6, FIRST_NAME)'
p165
sg21
g22
sbag0
(g153
g7
Ntp166
Rp167
(dp168
g122
F0.8
sg17
S'(0.8, FIRST_NAME)'
p169
sg21
g22
sbag0
(cdedupe.predicates
TfidfTextSearchPredicate
p170
g7
Ntp171
Rp172
(dp173
g122
F0.2
sg17
S'(0.2, FIRST_NAME)'
p174
sg21
g22
sbag0
(g170
g7
Ntp175
Rp176
(dp177
g122
F0.4
sg17
S'(0.4, FIRST_NAME)'
p178
sg21
g22
sbag0
(g170
g7
Ntp179
Rp180
(dp181
g122
F0.6
sg17
S'(0.6, FIRST_NAME)'
p182
sg21
g22
sbag0
(g170
g7
Ntp183
Rp184
(dp185
g122
F0.8
sg17
S'(0.8, FIRST_NAME)'
p186
sg21
g22
sbasg21
g22
sS'name'
p187
S'(FIRST_NAME: String)'
p188
sS'weight'
p189
F-0.14281809668981005
sS'has_missing'
p190
I00
sbag0
(g6
g7
Ntp191
Rp192
(dp193
g11
(lp194
g0
(g13
g7
Ntp195
Rp196
(dp197
g17
S'(wholeFieldPredicate, LAST_NAME)'
p198
sg19
g20
sg21
S'LAST_NAME'
p199
sbag0
(g13
g7
Ntp200
Rp201
(dp202
g17
S'(firstTokenPredicate, LAST_NAME)'
p203
sg19
g27
sg21
g199
sbag0
(g13
g7
Ntp204
Rp205
(dp206
g17
S'(commonIntegerPredicate, LAST_NAME)'
p207
sg19
g32
sg21
g199
sbag0
(g13
g7
Ntp208
Rp209
(dp210
g17
S'(nearIntegersPredicate, LAST_NAME)'
p211
sg19
g37
sg21
g199
sbag0
(g13
g7
Ntp212
Rp213
(dp214
g17
S'(firstIntegerPredicate, LAST_NAME)'
p215
sg19
g42
sg21
g199
sbag0
(g13
g7
Ntp216
Rp217
(dp218
g17
S'(sameThreeCharStartPredicate, LAST_NAME)'
p219
sg19
g47
sg21
g199
sbag0
(g13
g7
Ntp220
Rp221
(dp222
g17
S'(sameFiveCharStartPredicate, LAST_NAME)'
p223
sg19
g52
sg21
g199
sbag0
(g13
g7
Ntp224
Rp225
(dp226
g17
S'(sameSevenCharStartPredicate, LAST_NAME)'
p227
sg19
g57
sg21
g199
sbag0
(g13
g7
Ntp228
Rp229
(dp230
g17
S'(commonTwoTokens, LAST_NAME)'
p231
sg19
g62
sg21
g199
sbag0
(g13
g7
Ntp232
Rp233
(dp234
g17
S'(commonThreeTokens, LAST_NAME)'
p235
sg19
g67
sg21
g199
sbag0
(g13
g7
Ntp236
Rp237
(dp238
g17
S'(fingerprint, LAST_NAME)'
p239
sg19
g72
sg21
g199
sbag0
(g13
g7
Ntp240
Rp241
(dp242
g17
S'(oneGramFingerprint, LAST_NAME)'
p243
sg19
g77
sg21
g199
sbag0
(g13
g7
Ntp244
Rp245
(dp246
g17
S'(twoGramFingerprint, LAST_NAME)'
p247
sg19
g82
sg21
g199
sbag0
(g13
g7
Ntp248
Rp249
(dp250
g17
S'(sortedAcronym, LAST_NAME)'
p251
sg19
g87
sg21
g199
sbag0
(g13
g7
Ntp252
Rp253
(dp254
g17
S'(commonFourGram, LAST_NAME)'
p255
sg19
g92
sg21
g199
sbag0
(g13
g7
Ntp256
Rp257
(dp258
g17
S'(commonSixGram, LAST_NAME)'
p259
sg19
g97
sg21
g199
sbag0
(g13
g7
Ntp260
Rp261
(dp262
g17
S'(tokenFieldPredicate, LAST_NAME)'
p263
sg19
g102
sg21
g199
sbag0
(g13
g7
Ntp264
Rp265
(dp266
g17
S'(suffixArray, LAST_NAME)'
p267
sg19
g107
sg21
g199
sbag0
(g13
g7
Ntp268
Rp269
(dp270
g17
S'(doubleMetaphone, LAST_NAME)'
p271
sg19
g112
sg21
g199
sbag0
(g13
g7
Ntp272
Rp273
(dp274
g17
S'(metaphoneToken, LAST_NAME)'
p275
sg19
g117
sg21
g199
sbag0
(g118
g7
Ntp276
Rp277
(dp278
g122
F0.2
sg17
S'(0.2, LAST_NAME)'
p279
sg21
g199
sbag0
(g118
g7
Ntp280
Rp281
(dp282
g122
F0.4
sg17
S'(0.4, LAST_NAME)'
p283
sg21
g199
sbag0
(g118
g7
Ntp284
Rp285
(dp286
g122
F0.6
sg17
S'(0.6, LAST_NAME)'
p287
sg21
g199
sbag0
(g118
g7
Ntp288
Rp289
(dp290
g122
F0.8
sg17
S'(0.8, LAST_NAME)'
p291
sg21
g199
sbag0
(g136
g7
Ntp292
Rp293
(dp294
g122
F0.2
sg17
S'(0.2, LAST_NAME)'
p295
sg21
g199
sbag0
(g136
g7
Ntp296
Rp297
(dp298
g122
F0.4
sg17
S'(0.4, LAST_NAME)'
p299
sg21
g199
sbag0
(g136
g7
Ntp300
Rp301
(dp302
g122
F0.6
sg17
S'(0.6, LAST_NAME)'
p303
sg21
g199
sbag0
(g136
g7
Ntp304
Rp305
(dp306
g122
F0.8
sg17
S'(0.8, LAST_NAME)'
p307
sg21
g199
sbag0
(g153
g7
Ntp308
Rp309
(dp310
g122
F0.2
sg17
S'(0.2, LAST_NAME)'
p311
sg21
g199
sbag0
(g153
g7
Ntp312
Rp313
(dp314
g122
F0.4
sg17
S'(0.4, LAST_NAME)'
p315
sg21
g199
sbag0
(g153
g7
Ntp316
Rp317
(dp318
g122
F0.6
sg17
S'(0.6, LAST_NAME)'
p319
sg21
g199
sbag0
(g153
g7
Ntp320
Rp321
(dp322
g122
F0.8
sg17
S'(0.8, LAST_NAME)'
p323
sg21
g199
sbag0
(g170
g7
Ntp324
Rp325
(dp326
g122
F0.2
sg17
S'(0.2, LAST_NAME)'
p327
sg21
g199
sbag0
(g170
g7
Ntp328
Rp329
(dp330
g122
F0.4
sg17
S'(0.4, LAST_NAME)'
p331
sg21
g199
sbag0
(g170
g7
Ntp332
Rp333
(dp334
g122
F0.6
sg17
S'(0.6, LAST_NAME)'
p335
sg21
g199
sbag0
(g170
g7
Ntp336
Rp337
(dp338
g122
F0.8
sg17
S'(0.8, LAST_NAME)'
p339
sg21
g199
sbasg21
g199
sg187
S'(LAST_NAME: String)'
p340
sg189
F-0.4997153252003398
sg190
I00
sbag0
(g6
g7
Ntp341
Rp342
(dp343
g11
(lp344
g0
(g13
g7
Ntp345
Rp346
(dp347
g17
S'(wholeFieldPredicate, PREFIX)'
p348
sg19
g20
sg21
S'PREFIX'
p349
sbag0
(g13
g7
Ntp350
Rp351
(dp352
g17
S'(firstTokenPredicate, PREFIX)'
p353
sg19
g27
sg21
g349
sbag0
(g13
g7
Ntp354
Rp355
(dp356
g17
S'(commonIntegerPredicate, PREFIX)'
p357
sg19
g32
sg21
g349
sbag0
(g13
g7
Ntp358
Rp359
(dp360
g17
S'(nearIntegersPredicate, PREFIX)'
p361
sg19
g37
sg21
g349
sbag0
(g13
g7
Ntp362
Rp363
(dp364
g17
S'(firstIntegerPredicate, PREFIX)'
p365
sg19
g42
sg21
g349
sbag0
(g13
g7
Ntp366
Rp367
(dp368
g17
S'(sameThreeCharStartPredicate, PREFIX)'
p369
sg19
g47
sg21
g349
sbag0
(g13
g7
Ntp370
Rp371
(dp372
g17
S'(sameFiveCharStartPredicate, PREFIX)'
p373
sg19
g52
sg21
g349
sbag0
(g13
g7
Ntp374
Rp375
(dp376
g17
S'(sameSevenCharStartPredicate, PREFIX)'
p377
sg19
g57
sg21
g349
sbag0
(g13
g7
Ntp378
Rp379
(dp380
g17
S'(commonTwoTokens, PREFIX)'
p381
sg19
g62
sg21
g349
sbag0
(g13
g7
Ntp382
Rp383
(dp384
g17
S'(commonThreeTokens, PREFIX)'
p385
sg19
g67
sg21
g349
sbag0
(g13
g7
Ntp386
Rp387
(dp388
g17
S'(fingerprint, PREFIX)'
p389
sg19
g72
sg21
g349
sbag0
(g13
g7
Ntp390
Rp391
(dp392
g17
S'(oneGramFingerprint, PREFIX)'
p393
sg19
g77
sg21
g349
sbag0
(g13
g7
Ntp394
Rp395
(dp396
g17
S'(twoGramFingerprint, PREFIX)'
p397
sg19
g82
sg21
g349
sbag0
(g13
g7
Ntp398
Rp399
(dp400
g17
S'(sortedAcronym, PREFIX)'
p401
sg19
g87
sg21
g349
sbag0
(g13
g7
Ntp402
Rp403
(dp404
g17
S'(commonFourGram, PREFIX)'
p405
sg19
g92
sg21
g349
sbag0
(g13
g7
Ntp406
Rp407
(dp408
g17
S'(commonSixGram, PREFIX)'
p409
sg19
g97
sg21
g349
sbag0
(g13
g7
Ntp410
Rp411
(dp412
g17
S'(tokenFieldPredicate, PREFIX)'
p413
sg19
g102
sg21
g349
sbag0
(g13
g7
Ntp414
Rp415
(dp416
g17
S'(suffixArray, PREFIX)'
p417
sg19
g107
sg21
g349
sbag0
(g13
g7
Ntp418
Rp419
(dp420
g17
S'(doubleMetaphone, PREFIX)'
p421
sg19
g112
sg21
g349
sbag0
(g13
g7
Ntp422
Rp423
(dp424
g17
S'(metaphoneToken, PREFIX)'
p425
sg19
g117
sg21
g349
sbag0
(g118
g7
Ntp426
Rp427
(dp428
g122
F0.2
sg17
S'(0.2, PREFIX)'
p429
sg21
g349
sbag0
(g118
g7
Ntp430
Rp431
(dp432
g122
F0.4
sg17
S'(0.4, PREFIX)'
p433
sg21
g349
sbag0
(g118
g7
Ntp434
Rp435
(dp436
g122
F0.6
sg17
S'(0.6, PREFIX)'
p437
sg21
g349
sbag0
(g118
g7
Ntp438
Rp439
(dp440
g122
F0.8
sg17
S'(0.8, PREFIX)'
p441
sg21
g349
sbag0
(g136
g7
Ntp442
Rp443
(dp444
g122
F0.2
sg17
S'(0.2, PREFIX)'
p445
sg21
g349
sbag0
(g136
g7
Ntp446
Rp447
(dp448
g122
F0.4
sg17
S'(0.4, PREFIX)'
p449
sg21
g349
sbag0
(g136
g7
Ntp450
Rp451
(dp452
g122
F0.6
sg17
S'(0.6, PREFIX)'
p453
sg21
g349
sbag0
(g136
g7
Ntp454
Rp455
(dp456
g122
F0.8
sg17
S'(0.8, PREFIX)'
p457
sg21
g349
sbag0
(g153
g7
Ntp458
Rp459
(dp460
g122
F0.2
sg17
S'(0.2, PREFIX)'
p461
sg21
g349
sbag0
(g153
g7
Ntp462
Rp463
(dp464
g122
F0.4
sg17
S'(0.4, PREFIX)'
p465
sg21
g349
sbag0
(g153
g7
Ntp466
Rp467
(dp468
g122
F0.6
sg17
S'(0.6, PREFIX)'
p469
sg21
g349
sbag0
(g153
g7
Ntp470
Rp471
(dp472
g122
F0.8
sg17
S'(0.8, PREFIX)'
p473
sg21
g349
sbag0
(g170
g7
Ntp474
Rp475
(dp476
g122
F0.2
sg17
S'(0.2, PREFIX)'
p477
sg21
g349
sbag0
(g170
g7
Ntp478
Rp479
(dp480
g122
F0.4
sg17
S'(0.4, PREFIX)'
p481
sg21
g349
sbag0
(g170
g7
Ntp482
Rp483
(dp484
g122
F0.6
sg17
S'(0.6, PREFIX)'
p485
sg21
g349
sbag0
(g170
g7
Ntp486
Rp487
(dp488
g122
F0.8
sg17
S'(0.8, PREFIX)'
p489
sg21
g349
sbag0
(cdedupe.predicates
ExistsPredicate
p490
g7
Ntp491
Rp492
(dp493
g17
S'(Exists, PREFIX)'
p494
sg21
g349
sbasg21
g349
sg187
S'(PREFIX: String)'
p495
sg189
F-0.12765971657753442
sg190
I01
sbag0
(g6
g7
Ntp496
Rp497
(dp498
g11
(lp499
g0
(g13
g7
Ntp500
Rp501
(dp502
g17
S'(wholeFieldPredicate, SUFFIX)'
p503
sg19
g20
sg21
S'SUFFIX'
p504
sbag0
(g13
g7
Ntp505
Rp506
(dp507
g17
S'(firstTokenPredicate, SUFFIX)'
p508
sg19
g27
sg21
g504
sbag0
(g13
g7
Ntp509
Rp510
(dp511
g17
S'(commonIntegerPredicate, SUFFIX)'
p512
sg19
g32
sg21
g504
sbag0
(g13
g7
Ntp513
Rp514
(dp515
g17
S'(nearIntegersPredicate, SUFFIX)'
p516
sg19
g37
sg21
g504
sbag0
(g13
g7
Ntp517
Rp518
(dp519
g17
S'(firstIntegerPredicate, SUFFIX)'
p520
sg19
g42
sg21
g504
sbag0
(g13
g7
Ntp521
Rp522
(dp523
g17
S'(sameThreeCharStartPredicate, SUFFIX)'
p524
sg19
g47
sg21
g504
sbag0
(g13
g7
Ntp525
Rp526
(dp527
g17
S'(sameFiveCharStartPredicate, SUFFIX)'
p528
sg19
g52
sg21
g504
sbag0
(g13
g7
Ntp529
Rp530
(dp531
g17
S'(sameSevenCharStartPredicate, SUFFIX)'
p532
sg19
g57
sg21
g504
sbag0
(g13
g7
Ntp533
Rp534
(dp535
g17
S'(commonTwoTokens, SUFFIX)'
p536
sg19
g62
sg21
g504
sbag0
(g13
g7
Ntp537
Rp538
(dp539
g17
S'(commonThreeTokens, SUFFIX)'
p540
sg19
g67
sg21
g504
sbag0
(g13
g7
Ntp541
Rp542
(dp543
g17
S'(fingerprint, SUFFIX)'
p544
sg19
g72
sg21
g504
sbag0
(g13
g7
Ntp545
Rp546
(dp547
g17
S'(oneGramFingerprint, SUFFIX)'
p548
sg19
g77
sg21
g504
sbag0
(g13
g7
Ntp549
Rp550
(dp551
g17
S'(twoGramFingerprint, SUFFIX)'
p552
sg19
g82
sg21
g504
sbag0
(g13
g7
Ntp553
Rp554
(dp555
g17
S'(sortedAcronym, SUFFIX)'
p556
sg19
g87
sg21
g504
sbag0
(g13
g7
Ntp557
Rp558
(dp559
g17
S'(commonFourGram, SUFFIX)'
p560
sg19
g92
sg21
g504
sbag0
(g13
g7
Ntp561
Rp562
(dp563
g17
S'(commonSixGram, SUFFIX)'
p564
sg19
g97
sg21
g504
sbag0
(g13
g7
Ntp565
Rp566
(dp567
g17
S'(tokenFieldPredicate, SUFFIX)'
p568
sg19
g102
sg21
g504
sbag0
(g13
g7
Ntp569
Rp570
(dp571
g17
S'(suffixArray, SUFFIX)'
p572
sg19
g107
sg21
g504
sbag0
(g13
g7
Ntp573
Rp574
(dp575
g17
S'(doubleMetaphone, SUFFIX)'
p576
sg19
g112
sg21
g504
sbag0
(g13
g7
Ntp577
Rp578
(dp579
g17
S'(metaphoneToken, SUFFIX)'
p580
sg19
g117
sg21
g504
sbag0
(g118
g7
Ntp581
Rp582
(dp583
g122
F0.2
sg17
S'(0.2, SUFFIX)'
p584
sg21
g504
sbag0
(g118
g7
Ntp585
Rp586
(dp587
g122
F0.4
sg17
S'(0.4, SUFFIX)'
p588
sg21
g504
sbag0
(g118
g7
Ntp589
Rp590
(dp591
g122
F0.6
sg17
S'(0.6, SUFFIX)'
p592
sg21
g504
sbag0
(g118
g7
Ntp593
Rp594
(dp595
g122
F0.8
sg17
S'(0.8, SUFFIX)'
p596
sg21
g504
sbag0
(g136
g7
Ntp597
Rp598
(dp599
g122
F0.2
sg17
S'(0.2, SUFFIX)'
p600
sg21
g504
sbag0
(g136
g7
Ntp601
Rp602
(dp603
g122
F0.4
sg17
S'(0.4, SUFFIX)'
p604
sg21
g504
sbag0
(g136
g7
Ntp605
Rp606
(dp607
g122
F0.6
sg17
S'(0.6, SUFFIX)'
p608
sg21
g504
sbag0
(g136
g7
Ntp609
Rp610
(dp611
g122
F0.8
sg17
S'(0.8, SUFFIX)'
p612
sg21
g504
sbag0
(g153
g7
Ntp613
Rp614
(dp615
g122
F0.2
sg17
S'(0.2, SUFFIX)'
p616
sg21
g504
sbag0
(g153
g7
Ntp617
Rp618
(dp619
g122
F0.4
sg17
S'(0.4, SUFFIX)'
p620
sg21
g504
sbag0
(g153
g7
Ntp621
Rp622
(dp623
g122
F0.6
sg17
S'(0.6, SUFFIX)'
p624
sg21
g504
sbag0
(g153
g7
Ntp625
Rp626
(dp627
g122
F0.8
sg17
S'(0.8, SUFFIX)'
p628
sg21
g504
sbag0
(g170
g7
Ntp629
Rp630
(dp631
g122
F0.2
sg17
S'(0.2, SUFFIX)'
p632
sg21
g504
sbag0
(g170
g7
Ntp633
Rp634
(dp635
g122
F0.4
sg17
S'(0.4, SUFFIX)'
p636
sg21
g504
sbag0
(g170
g7
Ntp637
Rp638
(dp639
g122
F0.6
sg17
S'(0.6, SUFFIX)'
p640
sg21
g504
sbag0
(g170
g7
Ntp641
Rp642
(dp643
g122
F0.8
sg17
S'(0.8, SUFFIX)'
p644
sg21
g504
sbag0
(g490
g7
Ntp645
Rp646
(dp647
g17
S'(Exists, SUFFIX)'
p648
sg21
g504
sbasg21
g504
sg187
S'(SUFFIX: String)'
p649
sg189
F0.008877179413173763
sg190
I01
sbag0
(g6
g7
Ntp650
Rp651
(dp652
g11
(lp653
g0
(g13
g7
Ntp654
Rp655
(dp656
g17
S'(wholeFieldPredicate, INDUSTRY)'
p657
sg19
g20
sg21
S'INDUSTRY'
p658
sbag0
(g13
g7
Ntp659
Rp660
(dp661
g17
S'(firstTokenPredicate, INDUSTRY)'
p662
sg19
g27
sg21
g658
sbag0
(g13
g7
Ntp663
Rp664
(dp665
g17
S'(commonIntegerPredicate, INDUSTRY)'
p666
sg19
g32
sg21
g658
sbag0
(g13
g7
Ntp667
Rp668
(dp669
g17
S'(nearIntegersPredicate, INDUSTRY)'
p670
sg19
g37
sg21
g658
sbag0
(g13
g7
Ntp671
Rp672
(dp673
g17
S'(firstIntegerPredicate, INDUSTRY)'
p674
sg19
g42
sg21
g658
sbag0
(g13
g7
Ntp675
Rp676
(dp677
g17
S'(sameThreeCharStartPredicate, INDUSTRY)'
p678
sg19
g47
sg21
g658
sbag0
(g13
g7
Ntp679
Rp680
(dp681
g17
S'(sameFiveCharStartPredicate, INDUSTRY)'
p682
sg19
g52
sg21
g658
sbag0
(g13
g7
Ntp683
Rp684
(dp685
g17
S'(sameSevenCharStartPredicate, INDUSTRY)'
p686
sg19
g57
sg21
g658
sbag0
(g13
g7
Ntp687
Rp688
(dp689
g17
S'(commonTwoTokens, INDUSTRY)'
p690
sg19
g62
sg21
g658
sbag0
(g13
g7
Ntp691
Rp692
(dp693
g17
S'(commonThreeTokens, INDUSTRY)'
p694
sg19
g67
sg21
g658
sbag0
(g13
g7
Ntp695
Rp696
(dp697
g17
S'(fingerprint, INDUSTRY)'
p698
sg19
g72
sg21
g658
sbag0
(g13
g7
Ntp699
Rp700
(dp701
g17
S'(oneGramFingerprint, INDUSTRY)'
p702
sg19
g77
sg21
g658
sbag0
(g13
g7
Ntp703
Rp704
(dp705
g17
S'(twoGramFingerprint, INDUSTRY)'
p706
sg19
g82
sg21
g658
sbag0
(g13
g7
Ntp707
Rp708
(dp709
g17
S'(sortedAcronym, INDUSTRY)'
p710
sg19
g87
sg21
g658
sbag0
(g13
g7
Ntp711
Rp712
(dp713
g17
S'(commonFourGram, INDUSTRY)'
p714
sg19
g92
sg21
g658
sbag0
(g13
g7
Ntp715
Rp716
(dp717
g17
S'(commonSixGram, INDUSTRY)'
p718
sg19
g97
sg21
g658
sbag0
(g13
g7
Ntp719
Rp720
(dp721
g17
S'(tokenFieldPredicate, INDUSTRY)'
p722
sg19
g102
sg21
g658
sbag0
(g13
g7
Ntp723
Rp724
(dp725
g17
S'(suffixArray, INDUSTRY)'
p726
sg19
g107
sg21
g658
sbag0
(g13
g7
Ntp727
Rp728
(dp729
g17
S'(doubleMetaphone, INDUSTRY)'
p730
sg19
g112
sg21
g658
sbag0
(g13
g7
Ntp731
Rp732
(dp733
g17
S'(metaphoneToken, INDUSTRY)'
p734
sg19
g117
sg21
g658
sbag0
(g118
g7
Ntp735
Rp736
(dp737
g122
F0.2
sg17
S'(0.2, INDUSTRY)'
p738
sg21
g658
sbag0
(g118
g7
Ntp739
Rp740
(dp741
g122
F0.4
sg17
S'(0.4, INDUSTRY)'
p742
sg21
g658
sbag0
(g118
g7
Ntp743
Rp744
(dp745
g122
F0.6
sg17
S'(0.6, INDUSTRY)'
p746
sg21
g658
sbag0
(g118
g7
Ntp747
Rp748
(dp749
g122
F0.8
sg17
S'(0.8, INDUSTRY)'
p750
sg21
g658
sbag0
(g136
g7
Ntp751
Rp752
(dp753
g122
F0.2
sg17
S'(0.2, INDUSTRY)'
p754
sg21
g658
sbag0
(g136
g7
Ntp755
Rp756
(dp757
g122
F0.4
sg17
S'(0.4, INDUSTRY)'
p758
sg21
g658
sbag0
(g136
g7
Ntp759
Rp760
(dp761
g122
F0.6
sg17
S'(0.6, INDUSTRY)'
p762
sg21
g658
sbag0
(g136
g7
Ntp763
Rp764
(dp765
g122
F0.8
sg17
S'(0.8, INDUSTRY)'
p766
sg21
g658
sbag0
(g153
g7
Ntp767
Rp768
(dp769
g122
F0.2
sg17
S'(0.2, INDUSTRY)'
p770
sg21
g658
sbag0
(g153
g7
Ntp771
Rp772
(dp773
g122
F0.4
sg17
S'(0.4, INDUSTRY)'
p774
sg21
g658
sbag0
(g153
g7
Ntp775
Rp776
(dp777
g122
F0.6
sg17
S'(0.6, INDUSTRY)'
p778
sg21
g658
sbag0
(g153
g7
Ntp779
Rp780
(dp781
g122
F0.8
sg17
S'(0.8, INDUSTRY)'
p782
sg21
g658
sbag0
(g170
g7
Ntp783
Rp784
(dp785
g122
F0.2
sg17
S'(0.2, INDUSTRY)'
p786
sg21
g658
sbag0
(g170
g7
Ntp787
Rp788
(dp789
g122
F0.4
sg17
S'(0.4, INDUSTRY)'
p790
sg21
g658
sbag0
(g170
g7
Ntp791
Rp792
(dp793
g122
F0.6
sg17
S'(0.6, INDUSTRY)'
p794
sg21
g658
sbag0
(g170
g7
Ntp795
Rp796
(dp797
g122
F0.8
sg17
S'(0.8, INDUSTRY)'
p798
sg21
g658
sbag0
(g490
g7
Ntp799
Rp800
(dp801
g17
S'(Exists, INDUSTRY)'
p802
sg21
g658
sbasg21
g658
sg187
S'(INDUSTRY: String)'
p803
sg189
F-0.02459832331921964
sg190
I01
sbag0
(g6
g7
Ntp804
Rp805
(dp806
g11
(lp807
g0
(g13
g7
Ntp808
Rp809
(dp810
g17
S'(wholeFieldPredicate, COMPANY)'
p811
sg19
g20
sg21
S'COMPANY'
p812
sbag0
(g13
g7
Ntp813
Rp814
(dp815
g17
S'(firstTokenPredicate, COMPANY)'
p816
sg19
g27
sg21
g812
sbag0
(g13
g7
Ntp817
Rp818
(dp819
g17
S'(commonIntegerPredicate, COMPANY)'
p820
sg19
g32
sg21
g812
sbag0
(g13
g7
Ntp821
Rp822
(dp823
g17
S'(nearIntegersPredicate, COMPANY)'
p824
sg19
g37
sg21
g812
sbag0
(g13
g7
Ntp825
Rp826
(dp827
g17
S'(firstIntegerPredicate, COMPANY)'
p828
sg19
g42
sg21
g812
sbag0
(g13
g7
Ntp829
Rp830
(dp831
g17
S'(sameThreeCharStartPredicate, COMPANY)'
p832
sg19
g47
sg21
g812
sbag0
(g13
g7
Ntp833
Rp834
(dp835
g17
S'(sameFiveCharStartPredicate, COMPANY)'
p836
sg19
g52
sg21
g812
sbag0
(g13
g7
Ntp837
Rp838
(dp839
g17
S'(sameSevenCharStartPredicate, COMPANY)'
p840
sg19
g57
sg21
g812
sbag0
(g13
g7
Ntp841
Rp842
(dp843
g17
S'(commonTwoTokens, COMPANY)'
p844
sg19
g62
sg21
g812
sbag0
(g13
g7
Ntp845
Rp846
(dp847
g17
S'(commonThreeTokens, COMPANY)'
p848
sg19
g67
sg21
g812
sbag0
(g13
g7
Ntp849
Rp850
(dp851
g17
S'(fingerprint, COMPANY)'
p852
sg19
g72
sg21
g812
sbag0
(g13
g7
Ntp853
Rp854
(dp855
g17
S'(oneGramFingerprint, COMPANY)'
p856
sg19
g77
sg21
g812
sbag0
(g13
g7
Ntp857
Rp858
(dp859
g17
S'(twoGramFingerprint, COMPANY)'
p860
sg19
g82
sg21
g812
sbag0
(g13
g7
Ntp861
Rp862
(dp863
g17
S'(sortedAcronym, COMPANY)'
p864
sg19
g87
sg21
g812
sbag0
(g13
g7
Ntp865
Rp866
(dp867
g17
S'(commonFourGram, COMPANY)'
p868
sg19
g92
sg21
g812
sbag0
(g13
g7
Ntp869
Rp870
(dp871
g17
S'(commonSixGram, COMPANY)'
p872
sg19
g97
sg21
g812
sbag0
(g13
g7
Ntp873
Rp874
(dp875
g17
S'(tokenFieldPredicate, COMPANY)'
p876
sg19
g102
sg21
g812
sbag0
(g13
g7
Ntp877
Rp878
(dp879
g17
S'(suffixArray, COMPANY)'
p880
sg19
g107
sg21
g812
sbag0
(g13
g7
Ntp881
Rp882
(dp883
g17
S'(doubleMetaphone, COMPANY)'
p884
sg19
g112
sg21
g812
sbag0
(g13
g7
Ntp885
Rp886
(dp887
g17
S'(metaphoneToken, COMPANY)'
p888
sg19
g117
sg21
g812
sbag0
(g118
g7
Ntp889
Rp890
(dp891
g122
F0.2
sg17
S'(0.2, COMPANY)'
p892
sg21
g812
sbag0
(g118
g7
Ntp893
Rp894
(dp895
g122
F0.4
sg17
S'(0.4, COMPANY)'
p896
sg21
g812
sbag0
(g118
g7
Ntp897
Rp898
(dp899
g122
F0.6
sg17
S'(0.6, COMPANY)'
p900
sg21
g812
sbag0
(g118
g7
Ntp901
Rp902
(dp903
g122
F0.8
sg17
S'(0.8, COMPANY)'
p904
sg21
g812
sbag0
(g136
g7
Ntp905
Rp906
(dp907
g122
F0.2
sg17
S'(0.2, COMPANY)'
p908
sg21
g812
sbag0
(g136
g7
Ntp909
Rp910
(dp911
g122
F0.4
sg17
S'(0.4, COMPANY)'
p912
sg21
g812
sbag0
(g136
g7
Ntp913
Rp914
(dp915
g122
F0.6
sg17
S'(0.6, COMPANY)'
p916
sg21
g812
sbag0
(g136
g7
Ntp917
Rp918
(dp919
g122
F0.8
sg17
S'(0.8, COMPANY)'
p920
sg21
g812
sbag0
(g153
g7
Ntp921
Rp922
(dp923
g122
F0.2
sg17
S'(0.2, COMPANY)'
p924
sg21
g812
sbag0
(g153
g7
Ntp925
Rp926
(dp927
g122
F0.4
sg17
S'(0.4, COMPANY)'
p928
sg21
g812
sbag0
(g153
g7
Ntp929
Rp930
(dp931
g122
F0.6
sg17
S'(0.6, COMPANY)'
p932
sg21
g812
sbag0
(g153
g7
Ntp933
Rp934
(dp935
g122
F0.8
sg17
S'(0.8, COMPANY)'
p936
sg21
g812
sbag0
(g170
g7
Ntp937
Rp938
(dp939
g122
F0.2
sg17
S'(0.2, COMPANY)'
p940
sg21
g812
sbag0
(g170
g7
Ntp941
Rp942
(dp943
g122
F0.4
sg17
S'(0.4, COMPANY)'
p944
sg21
g812
sbag0
(g170
g7
Ntp945
Rp946
(dp947
g122
F0.6
sg17
S'(0.6, COMPANY)'
p948
sg21
g812
sbag0
(g170
g7
Ntp949
Rp950
(dp951
g122
F0.8
sg17
S'(0.8, COMPANY)'
p952
sg21
g812
sbag0
(g490
g7
Ntp953
Rp954
(dp955
g17
S'(Exists, COMPANY)'
p956
sg21
g812
sbasg21
g812
sg187
S'(COMPANY: String)'
p957
sg189
F-0.13075754478391016
sg190
I01
sbag0
(g6
g7
Ntp958
Rp959
(dp960
g11
(lp961
g0
(g13
g7
Ntp962
Rp963
(dp964
g17
S'(wholeFieldPredicate, JOB_TITLE)'
p965
sg19
g20
sg21
S'JOB_TITLE'
p966
sbag0
(g13
g7
Ntp967
Rp968
(dp969
g17
S'(firstTokenPredicate, JOB_TITLE)'
p970
sg19
g27
sg21
g966
sbag0
(g13
g7
Ntp971
Rp972
(dp973
g17
S'(commonIntegerPredicate, JOB_TITLE)'
p974
sg19
g32
sg21
g966
sbag0
(g13
g7
Ntp975
Rp976
(dp977
g17
S'(nearIntegersPredicate, JOB_TITLE)'
p978
sg19
g37
sg21
g966
sbag0
(g13
g7
Ntp979
Rp980
(dp981
g17
S'(firstIntegerPredicate, JOB_TITLE)'
p982
sg19
g42
sg21
g966
sbag0
(g13
g7
Ntp983
Rp984
(dp985
g17
S'(sameThreeCharStartPredicate, JOB_TITLE)'
p986
sg19
g47
sg21
g966
sbag0
(g13
g7
Ntp987
Rp988
(dp989
g17
S'(sameFiveCharStartPredicate, JOB_TITLE)'
p990
sg19
g52
sg21
g966
sbag0
(g13
g7
Ntp991
Rp992
(dp993
g17
S'(sameSevenCharStartPredicate, JOB_TITLE)'
p994
sg19
g57
sg21
g966
sbag0
(g13
g7
Ntp995
Rp996
(dp997
g17
S'(commonTwoTokens, JOB_TITLE)'
p998
sg19
g62
sg21
g966
sbag0
(g13
g7
Ntp999
Rp1000
(dp1001
g17
S'(commonThreeTokens, JOB_TITLE)'
p1002
sg19
g67
sg21
g966
sbag0
(g13
g7
Ntp1003
Rp1004
(dp1005
g17
S'(fingerprint, JOB_TITLE)'
p1006
sg19
g72
sg21
g966
sbag0
(g13
g7
Ntp1007
Rp1008
(dp1009
g17
S'(oneGramFingerprint, JOB_TITLE)'
p1010
sg19
g77
sg21
g966
sbag0
(g13
g7
Ntp1011
Rp1012
(dp1013
g17
S'(twoGramFingerprint, JOB_TITLE)'
p1014
sg19
g82
sg21
g966
sbag0
(g13
g7
Ntp1015
Rp1016
(dp1017
g17
S'(sortedAcronym, JOB_TITLE)'
p1018
sg19
g87
sg21
g966
sbag0
(g13
g7
Ntp1019
Rp1020
(dp1021
g17
S'(commonFourGram, JOB_TITLE)'
p1022
sg19
g92
sg21
g966
sbag0
(g13
g7
Ntp1023
Rp1024
(dp1025
g17
S'(commonSixGram, JOB_TITLE)'
p1026
sg19
g97
sg21
g966
sbag0
(g13
g7
Ntp1027
Rp1028
(dp1029
g17
S'(tokenFieldPredicate, JOB_TITLE)'
p1030
sg19
g102
sg21
g966
sbag0
(g13
g7
Ntp1031
Rp1032
(dp1033
g17
S'(suffixArray, JOB_TITLE)'
p1034
sg19
g107
sg21
g966
sbag0
(g13
g7
Ntp1035
Rp1036
(dp1037
g17
S'(doubleMetaphone, JOB_TITLE)'
p1038
sg19
g112
sg21
g966
sbag0
(g13
g7
Ntp1039
Rp1040
(dp1041
g17
S'(metaphoneToken, JOB_TITLE)'
p1042
sg19
g117
sg21
g966
sbag0
(g118
g7
Ntp1043
Rp1044
(dp1045
g122
F0.2
sg17
S'(0.2, JOB_TITLE)'
p1046
sg21
g966
sbag0
(g118
g7
Ntp1047
Rp1048
(dp1049
g122
F0.4
sg17
S'(0.4, JOB_TITLE)'
p1050
sg21
g966
sbag0
(g118
g7
Ntp1051
Rp1052
(dp1053
g122
F0.6
sg17
S'(0.6, JOB_TITLE)'
p1054
sg21
g966
sbag0
(g118
g7
Ntp1055
Rp1056
(dp1057
g122
F0.8
sg17
S'(0.8, JOB_TITLE)'
p1058
sg21
g966
sbag0
(g136
g7
Ntp1059
Rp1060
(dp1061
g122
F0.2
sg17
S'(0.2, JOB_TITLE)'
p1062
sg21
g966
sbag0
(g136
g7
Ntp1063
Rp1064
(dp1065
g122
F0.4
sg17
S'(0.4, JOB_TITLE)'
p1066
sg21
g966
sbag0
(g136
g7
Ntp1067
Rp1068
(dp1069
g122
F0.6
sg17
S'(0.6, JOB_TITLE)'
p1070
sg21
g966
sbag0
(g136
g7
Ntp1071
Rp1072
(dp1073
g122
F0.8
sg17
S'(0.8, JOB_TITLE)'
p1074
sg21
g966
sbag0
(g153
g7
Ntp1075
Rp1076
(dp1077
g122
F0.2
sg17
S'(0.2, JOB_TITLE)'
p1078
sg21
g966
sbag0
(g153
g7
Ntp1079
Rp1080
(dp1081
g122
F0.4
sg17
S'(0.4, JOB_TITLE)'
p1082
sg21
g966
sbag0
(g153
g7
Ntp1083
Rp1084
(dp1085
g122
F0.6
sg17
S'(0.6, JOB_TITLE)'
p1086
sg21
g966
sbag0
(g153
g7
Ntp1087
Rp1088
(dp1089
g122
F0.8
sg17
S'(0.8, JOB_TITLE)'
p1090
sg21
g966
sbag0
(g170
g7
Ntp1091
Rp1092
(dp1093
g122
F0.2
sg17
S'(0.2, JOB_TITLE)'
p1094
sg21
g966
sbag0
(g170
g7
Ntp1095
Rp1096
(dp1097
g122
F0.4
sg17
S'(0.4, JOB_TITLE)'
p1098
sg21
g966
sbag0
(g170
g7
Ntp1099
Rp1100
(dp1101
g122
F0.6
sg17
S'(0.6, JOB_TITLE)'
p1102
sg21
g966
sbag0
(g170
g7
Ntp1103
Rp1104
(dp1105
g122
F0.8
sg17
S'(0.8, JOB_TITLE)'
p1106
sg21
g966
sbag0
(g490
g7
Ntp1107
Rp1108
(dp1109
g17
S'(Exists, JOB_TITLE)'
p1110
sg21
g966
sbasg21
g966
sg187
S'(JOB_TITLE: String)'
p1111
sg189
F0.03587128663671628
sg190
I01
sbag0
(g6
g7
Ntp1112
Rp1113
(dp1114
g11
(lp1115
g0
(g13
g7
Ntp1116
Rp1117
(dp1118
g17
S'(wholeFieldPredicate, HOME_STREET)'
p1119
sg19
g20
sg21
S'HOME_STREET'
p1120
sbag0
(g13
g7
Ntp1121
Rp1122
(dp1123
g17
S'(firstTokenPredicate, HOME_STREET)'
p1124
sg19
g27
sg21
g1120
sbag0
(g13
g7
Ntp1125
Rp1126
(dp1127
g17
S'(commonIntegerPredicate, HOME_STREET)'
p1128
sg19
g32
sg21
g1120
sbag0
(g13
g7
Ntp1129
Rp1130
(dp1131
g17
S'(nearIntegersPredicate, HOME_STREET)'
p1132
sg19
g37
sg21
g1120
sbag0
(g13
g7
Ntp1133
Rp1134
(dp1135
g17
S'(firstIntegerPredicate, HOME_STREET)'
p1136
sg19
g42
sg21
g1120
sbag0
(g13
g7
Ntp1137
Rp1138
(dp1139
g17
S'(sameThreeCharStartPredicate, HOME_STREET)'
p1140
sg19
g47
sg21
g1120
sbag0
(g13
g7
Ntp1141
Rp1142
(dp1143
g17
S'(sameFiveCharStartPredicate, HOME_STREET)'
p1144
sg19
g52
sg21
g1120
sbag0
(g13
g7
Ntp1145
Rp1146
(dp1147
g17
S'(sameSevenCharStartPredicate, HOME_STREET)'
p1148
sg19
g57
sg21
g1120
sbag0
(g13
g7
Ntp1149
Rp1150
(dp1151
g17
S'(commonTwoTokens, HOME_STREET)'
p1152
sg19
g62
sg21
g1120
sbag0
(g13
g7
Ntp1153
Rp1154
(dp1155
g17
S'(commonThreeTokens, HOME_STREET)'
p1156
sg19
g67
sg21
g1120
sbag0
(g13
g7
Ntp1157
Rp1158
(dp1159
g17
S'(fingerprint, HOME_STREET)'
p1160
sg19
g72
sg21
g1120
sbag0
(g13
g7
Ntp1161
Rp1162
(dp1163
g17
S'(oneGramFingerprint, HOME_STREET)'
p1164
sg19
g77
sg21
g1120
sbag0
(g13
g7
Ntp1165
Rp1166
(dp1167
g17
S'(twoGramFingerprint, HOME_STREET)'
p1168
sg19
g82
sg21
g1120
sbag0
(g13
g7
Ntp1169
Rp1170
(dp1171
g17
S'(sortedAcronym, HOME_STREET)'
p1172
sg19
g87
sg21
g1120
sbag0
(g13
g7
Ntp1173
Rp1174
(dp1175
g17
S'(commonFourGram, HOME_STREET)'
p1176
sg19
g92
sg21
g1120
sbag0
(g13
g7
Ntp1177
Rp1178
(dp1179
g17
S'(commonSixGram, HOME_STREET)'
p1180
sg19
g97
sg21
g1120
sbag0
(g13
g7
Ntp1181
Rp1182
(dp1183
g17
S'(tokenFieldPredicate, HOME_STREET)'
p1184
sg19
g102
sg21
g1120
sbag0
(g13
g7
Ntp1185
Rp1186
(dp1187
g17
S'(suffixArray, HOME_STREET)'
p1188
sg19
g107
sg21
g1120
sbag0
(g13
g7
Ntp1189
Rp1190
(dp1191
g17
S'(doubleMetaphone, HOME_STREET)'
p1192
sg19
g112
sg21
g1120
sbag0
(g13
g7
Ntp1193
Rp1194
(dp1195
g17
S'(metaphoneToken, HOME_STREET)'
p1196
sg19
g117
sg21
g1120
sbag0
(g118
g7
Ntp1197
Rp1198
(dp1199
g122
F0.2
sg17
S'(0.2, HOME_STREET)'
p1200
sg21
g1120
sbag0
(g118
g7
Ntp1201
Rp1202
(dp1203
g122
F0.4
sg17
S'(0.4, HOME_STREET)'
p1204
sg21
g1120
sbag0
(g118
g7
Ntp1205
Rp1206
(dp1207
g122
F0.6
sg17
S'(0.6, HOME_STREET)'
p1208
sg21
g1120
sbag0
(g118
g7
Ntp1209
Rp1210
(dp1211
g122
F0.8
sg17
S'(0.8, HOME_STREET)'
p1212
sg21
g1120
sbag0
(g136
g7
Ntp1213
Rp1214
(dp1215
g122
F0.2
sg17
S'(0.2, HOME_STREET)'
p1216
sg21
g1120
sbag0
(g136
g7
Ntp1217
Rp1218
(dp1219
g122
F0.4
sg17
S'(0.4, HOME_STREET)'
p1220
sg21
g1120
sbag0
(g136
g7
Ntp1221
Rp1222
(dp1223
g122
F0.6
sg17
S'(0.6, HOME_STREET)'
p1224
sg21
g1120
sbag0
(g136
g7
Ntp1225
Rp1226
(dp1227
g122
F0.8
sg17
S'(0.8, HOME_STREET)'
p1228
sg21
g1120
sbag0
(g153
g7
Ntp1229
Rp1230
(dp1231
g122
F0.2
sg17
S'(0.2, HOME_STREET)'
p1232
sg21
g1120
sbag0
(g153
g7
Ntp1233
Rp1234
(dp1235
g122
F0.4
sg17
S'(0.4, HOME_STREET)'
p1236
sg21
g1120
sbag0
(g153
g7
Ntp1237
Rp1238
(dp1239
g122
F0.6
sg17
S'(0.6, HOME_STREET)'
p1240
sg21
g1120
sbag0
(g153
g7
Ntp1241
Rp1242
(dp1243
g122
F0.8
sg17
S'(0.8, HOME_STREET)'
p1244
sg21
g1120
sbag0
(g170
g7
Ntp1245
Rp1246
(dp1247
g122
F0.2
sg17
S'(0.2, HOME_STREET)'
p1248
sg21
g1120
sbag0
(g170
g7
Ntp1249
Rp1250
(dp1251
g122
F0.4
sg17
S'(0.4, HOME_STREET)'
p1252
sg21
g1120
sbag0
(g170
g7
Ntp1253
Rp1254
(dp1255
g122
F0.6
sg17
S'(0.6, HOME_STREET)'
p1256
sg21
g1120
sbag0
(g170
g7
Ntp1257
Rp1258
(dp1259
g122
F0.8
sg17
S'(0.8, HOME_STREET)'
p1260
sg21
g1120
sbag0
(g490
g7
Ntp1261
Rp1262
(dp1263
g17
S'(Exists, HOME_STREET)'
p1264
sg21
g1120
sbasg21
g1120
sg187
S'(HOME_STREET: String)'
p1265
sg189
F-0.16632451980820354
sg190
I01
sbag0
(cdedupe.variables.string
ShortStringType
p1266
g7
Ntp1267
Rp1268
(dp1269
g11
(lp1270
g0
(g13
g7
Ntp1271
Rp1272
(dp1273
g17
S'(wholeFieldPredicate, HOME_CITY)'
p1274
sg19
g20
sg21
S'HOME_CITY'
p1275
sbag0
(g13
g7
Ntp1276
Rp1277
(dp1278
g17
S'(firstTokenPredicate, HOME_CITY)'
p1279
sg19
g27
sg21
g1275
sbag0
(g13
g7
Ntp1280
Rp1281
(dp1282
g17
S'(commonIntegerPredicate, HOME_CITY)'
p1283
sg19
g32
sg21
g1275
sbag0
(g13
g7
Ntp1284
Rp1285
(dp1286
g17
S'(nearIntegersPredicate, HOME_CITY)'
p1287
sg19
g37
sg21
g1275
sbag0
(g13
g7
Ntp1288
Rp1289
(dp1290
g17
S'(firstIntegerPredicate, HOME_CITY)'
p1291
sg19
g42
sg21
g1275
sbag0
(g13
g7
Ntp1292
Rp1293
(dp1294
g17
S'(sameThreeCharStartPredicate, HOME_CITY)'
p1295
sg19
g47
sg21
g1275
sbag0
(g13
g7
Ntp1296
Rp1297
(dp1298
g17
S'(sameFiveCharStartPredicate, HOME_CITY)'
p1299
sg19
g52
sg21
g1275
sbag0
(g13
g7
Ntp1300
Rp1301
(dp1302
g17
S'(sameSevenCharStartPredicate, HOME_CITY)'
p1303
sg19
g57
sg21
g1275
sbag0
(g13
g7
Ntp1304
Rp1305
(dp1306
g17
S'(commonTwoTokens, HOME_CITY)'
p1307
sg19
g62
sg21
g1275
sbag0
(g13
g7
Ntp1308
Rp1309
(dp1310
g17
S'(commonThreeTokens, HOME_CITY)'
p1311
sg19
g67
sg21
g1275
sbag0
(g13
g7
Ntp1312
Rp1313
(dp1314
g17
S'(fingerprint, HOME_CITY)'
p1315
sg19
g72
sg21
g1275
sbag0
(g13
g7
Ntp1316
Rp1317
(dp1318
g17
S'(oneGramFingerprint, HOME_CITY)'
p1319
sg19
g77
sg21
g1275
sbag0
(g13
g7
Ntp1320
Rp1321
(dp1322
g17
S'(twoGramFingerprint, HOME_CITY)'
p1323
sg19
g82
sg21
g1275
sbag0
(g13
g7
Ntp1324
Rp1325
(dp1326
g17
S'(sortedAcronym, HOME_CITY)'
p1327
sg19
g87
sg21
g1275
sbag0
(g13
g7
Ntp1328
Rp1329
(dp1330
g17
S'(commonFourGram, HOME_CITY)'
p1331
sg19
g92
sg21
g1275
sbag0
(g13
g7
Ntp1332
Rp1333
(dp1334
g17
S'(commonSixGram, HOME_CITY)'
p1335
sg19
g97
sg21
g1275
sbag0
(g13
g7
Ntp1336
Rp1337
(dp1338
g17
S'(tokenFieldPredicate, HOME_CITY)'
p1339
sg19
g102
sg21
g1275
sbag0
(g13
g7
Ntp1340
Rp1341
(dp1342
g17
S'(suffixArray, HOME_CITY)'
p1343
sg19
g107
sg21
g1275
sbag0
(g13
g7
Ntp1344
Rp1345
(dp1346
g17
S'(doubleMetaphone, HOME_CITY)'
p1347
sg19
g112
sg21
g1275
sbag0
(g13
g7
Ntp1348
Rp1349
(dp1350
g17
S'(metaphoneToken, HOME_CITY)'
p1351
sg19
g117
sg21
g1275
sbag0
(g118
g7
Ntp1352
Rp1353
(dp1354
g122
F0.2
sg17
S'(0.2, HOME_CITY)'
p1355
sg21
g1275
sbag0
(g118
g7
Ntp1356
Rp1357
(dp1358
g122
F0.4
sg17
S'(0.4, HOME_CITY)'
p1359
sg21
g1275
sbag0
(g118
g7
Ntp1360
Rp1361
(dp1362
g122
F0.6
sg17
S'(0.6, HOME_CITY)'
p1363
sg21
g1275
sbag0
(g118
g7
Ntp1364
Rp1365
(dp1366
g122
F0.8
sg17
S'(0.8, HOME_CITY)'
p1367
sg21
g1275
sbag0
(g136
g7
Ntp1368
Rp1369
(dp1370
g122
F0.2
sg17
S'(0.2, HOME_CITY)'
p1371
sg21
g1275
sbag0
(g136
g7
Ntp1372
Rp1373
(dp1374
g122
F0.4
sg17
S'(0.4, HOME_CITY)'
p1375
sg21
g1275
sbag0
(g136
g7
Ntp1376
Rp1377
(dp1378
g122
F0.6
sg17
S'(0.6, HOME_CITY)'
p1379
sg21
g1275
sbag0
(g136
g7
Ntp1380
Rp1381
(dp1382
g122
F0.8
sg17
S'(0.8, HOME_CITY)'
p1383
sg21
g1275
sbag0
(g490
g7
Ntp1384
Rp1385
(dp1386
g17
S'(Exists, HOME_CITY)'
p1387
sg21
g1275
sbasg21
g1275
sg187
S'(HOME_CITY: ShortString)'
p1388
sg189
F-0.09124340766848703
sg190
I01
sbag0
(g1266
g7
Ntp1389
Rp1390
(dp1391
g11
(lp1392
g0
(g13
g7
Ntp1393
Rp1394
(dp1395
g17
S'(wholeFieldPredicate, HOME_STATE)'
p1396
sg19
g20
sg21
S'HOME_STATE'
p1397
sbag0
(g13
g7
Ntp1398
Rp1399
(dp1400
g17
S'(firstTokenPredicate, HOME_STATE)'
p1401
sg19
g27
sg21
g1397
sbag0
(g13
g7
Ntp1402
Rp1403
(dp1404
g17
S'(commonIntegerPredicate, HOME_STATE)'
p1405
sg19
g32
sg21
g1397
sbag0
(g13
g7
Ntp1406
Rp1407
(dp1408
g17
S'(nearIntegersPredicate, HOME_STATE)'
p1409
sg19
g37
sg21
g1397
sbag0
(g13
g7
Ntp1410
Rp1411
(dp1412
g17
S'(firstIntegerPredicate, HOME_STATE)'
p1413
sg19
g42
sg21
g1397
sbag0
(g13
g7
Ntp1414
Rp1415
(dp1416
g17
S'(sameThreeCharStartPredicate, HOME_STATE)'
p1417
sg19
g47
sg21
g1397
sbag0
(g13
g7
Ntp1418
Rp1419
(dp1420
g17
S'(sameFiveCharStartPredicate, HOME_STATE)'
p1421
sg19
g52
sg21
g1397
sbag0
(g13
g7
Ntp1422
Rp1423
(dp1424
g17
S'(sameSevenCharStartPredicate, HOME_STATE)'
p1425
sg19
g57
sg21
g1397
sbag0
(g13
g7
Ntp1426
Rp1427
(dp1428
g17
S'(commonTwoTokens, HOME_STATE)'
p1429
sg19
g62
sg21
g1397
sbag0
(g13
g7
Ntp1430
Rp1431
(dp1432
g17
S'(commonThreeTokens, HOME_STATE)'
p1433
sg19
g67
sg21
g1397
sbag0
(g13
g7
Ntp1434
Rp1435
(dp1436
g17
S'(fingerprint, HOME_STATE)'
p1437
sg19
g72
sg21
g1397
sbag0
(g13
g7
Ntp1438
Rp1439
(dp1440
g17
S'(oneGramFingerprint, HOME_STATE)'
p1441
sg19
g77
sg21
g1397
sbag0
(g13
g7
Ntp1442
Rp1443
(dp1444
g17
S'(twoGramFingerprint, HOME_STATE)'
p1445
sg19
g82
sg21
g1397
sbag0
(g13
g7
Ntp1446
Rp1447
(dp1448
g17
S'(sortedAcronym, HOME_STATE)'
p1449
sg19
g87
sg21
g1397
sbag0
(g13
g7
Ntp1450
Rp1451
(dp1452
g17
S'(commonFourGram, HOME_STATE)'
p1453
sg19
g92
sg21
g1397
sbag0
(g13
g7
Ntp1454
Rp1455
(dp1456
g17
S'(commonSixGram, HOME_STATE)'
p1457
sg19
g97
sg21
g1397
sbag0
(g13
g7
Ntp1458
Rp1459
(dp1460
g17
S'(tokenFieldPredicate, HOME_STATE)'
p1461
sg19
g102
sg21
g1397
sbag0
(g13
g7
Ntp1462
Rp1463
(dp1464
g17
S'(suffixArray, HOME_STATE)'
p1465
sg19
g107
sg21
g1397
sbag0
(g13
g7
Ntp1466
Rp1467
(dp1468
g17
S'(doubleMetaphone, HOME_STATE)'
p1469
sg19
g112
sg21
g1397
sbag0
(g13
g7
Ntp1470
Rp1471
(dp1472
g17
S'(metaphoneToken, HOME_STATE)'
p1473
sg19
g117
sg21
g1397
sbag0
(g118
g7
Ntp1474
Rp1475
(dp1476
g122
F0.2
sg17
S'(0.2, HOME_STATE)'
p1477
sg21
g1397
sbag0
(g118
g7
Ntp1478
Rp1479
(dp1480
g122
F0.4
sg17
S'(0.4, HOME_STATE)'
p1481
sg21
g1397
sbag0
(g118
g7
Ntp1482
Rp1483
(dp1484
g122
F0.6
sg17
S'(0.6, HOME_STATE)'
p1485
sg21
g1397
sbag0
(g118
g7
Ntp1486
Rp1487
(dp1488
g122
F0.8
sg17
S'(0.8, HOME_STATE)'
p1489
sg21
g1397
sbag0
(g136
g7
Ntp1490
Rp1491
(dp1492
g122
F0.2
sg17
S'(0.2, HOME_STATE)'
p1493
sg21
g1397
sbag0
(g136
g7
Ntp1494
Rp1495
(dp1496
g122
F0.4
sg17
S'(0.4, HOME_STATE)'
p1497
sg21
g1397
sbag0
(g136
g7
Ntp1498
Rp1499
(dp1500
g122
F0.6
sg17
S'(0.6, HOME_STATE)'
p1501
sg21
g1397
sbag0
(g136
g7
Ntp1502
Rp1503
(dp1504
g122
F0.8
sg17
S'(0.8, HOME_STATE)'
p1505
sg21
g1397
sbag0
(g490
g7
Ntp1506
Rp1507
(dp1508
g17
S'(Exists, HOME_STATE)'
p1509
sg21
g1397
sbasg21
g1397
sg187
S'(HOME_STATE: ShortString)'
p1510
sg189
F-0.1061252191063619
sg190
I01
sbag0
(g1266
g7
Ntp1511
Rp1512
(dp1513
g11
(lp1514
g0
(g13
g7
Ntp1515
Rp1516
(dp1517
g17
S'(wholeFieldPredicate, HOME_ZIPCODE)'
p1518
sg19
g20
sg21
S'HOME_ZIPCODE'
p1519
sbag0
(g13
g7
Ntp1520
Rp1521
(dp1522
g17
S'(firstTokenPredicate, HOME_ZIPCODE)'
p1523
sg19
g27
sg21
g1519
sbag0
(g13
g7
Ntp1524
Rp1525
(dp1526
g17
S'(commonIntegerPredicate, HOME_ZIPCODE)'
p1527
sg19
g32
sg21
g1519
sbag0
(g13
g7
Ntp1528
Rp1529
(dp1530
g17
S'(nearIntegersPredicate, HOME_ZIPCODE)'
p1531
sg19
g37
sg21
g1519
sbag0
(g13
g7
Ntp1532
Rp1533
(dp1534
g17
S'(firstIntegerPredicate, HOME_ZIPCODE)'
p1535
sg19
g42
sg21
g1519
sbag0
(g13
g7
Ntp1536
Rp1537
(dp1538
g17
S'(sameThreeCharStartPredicate, HOME_ZIPCODE)'
p1539
sg19
g47
sg21
g1519
sbag0
(g13
g7
Ntp1540
Rp1541
(dp1542
g17
S'(sameFiveCharStartPredicate, HOME_ZIPCODE)'
p1543
sg19
g52
sg21
g1519
sbag0
(g13
g7
Ntp1544
Rp1545
(dp1546
g17
S'(sameSevenCharStartPredicate, HOME_ZIPCODE)'
p1547
sg19
g57
sg21
g1519
sbag0
(g13
g7
Ntp1548
Rp1549
(dp1550
g17
S'(commonTwoTokens, HOME_ZIPCODE)'
p1551
sg19
g62
sg21
g1519
sbag0
(g13
g7
Ntp1552
Rp1553
(dp1554
g17
S'(commonThreeTokens, HOME_ZIPCODE)'
p1555
sg19
g67
sg21
g1519
sbag0
(g13
g7
Ntp1556
Rp1557
(dp1558
g17
S'(fingerprint, HOME_ZIPCODE)'
p1559
sg19
g72
sg21
g1519
sbag0
(g13
g7
Ntp1560
Rp1561
(dp1562
g17
S'(oneGramFingerprint, HOME_ZIPCODE)'
p1563
sg19
g77
sg21
g1519
sbag0
(g13
g7
Ntp1564
Rp1565
(dp1566
g17
S'(twoGramFingerprint, HOME_ZIPCODE)'
p1567
sg19
g82
sg21
g1519
sbag0
(g13
g7
Ntp1568
Rp1569
(dp1570
g17
S'(sortedAcronym, HOME_ZIPCODE)'
p1571
sg19
g87
sg21
g1519
sbag0
(g13
g7
Ntp1572
Rp1573
(dp1574
g17
S'(commonFourGram, HOME_ZIPCODE)'
p1575
sg19
g92
sg21
g1519
sbag0
(g13
g7
Ntp1576
Rp1577
(dp1578
g17
S'(commonSixGram, HOME_ZIPCODE)'
p1579
sg19
g97
sg21
g1519
sbag0
(g13
g7
Ntp1580
Rp1581
(dp1582
g17
S'(tokenFieldPredicate, HOME_ZIPCODE)'
p1583
sg19
g102
sg21
g1519
sbag0
(g13
g7
Ntp1584
Rp1585
(dp1586
g17
S'(suffixArray, HOME_ZIPCODE)'
p1587
sg19
g107
sg21
g1519
sbag0
(g13
g7
Ntp1588
Rp1589
(dp1590
g17
S'(doubleMetaphone, HOME_ZIPCODE)'
p1591
sg19
g112
sg21
g1519
sbag0
(g13
g7
Ntp1592
Rp1593
(dp1594
g17
S'(metaphoneToken, HOME_ZIPCODE)'
p1595
sg19
g117
sg21
g1519
sbag0
(g118
g7
Ntp1596
Rp1597
(dp1598
g122
F0.2
sg17
S'(0.2, HOME_ZIPCODE)'
p1599
sg21
g1519
sbag0
(g118
g7
Ntp1600
Rp1601
(dp1602
g122
F0.4
sg17
S'(0.4, HOME_ZIPCODE)'
p1603
sg21
g1519
sbag0
(g118
g7
Ntp1604
Rp1605
(dp1606
g122
F0.6
sg17
S'(0.6, HOME_ZIPCODE)'
p1607
sg21
g1519
sbag0
(g118
g7
Ntp1608
Rp1609
(dp1610
g122
F0.8
sg17
S'(0.8, HOME_ZIPCODE)'
p1611
sg21
g1519
sbag0
(g136
g7
Ntp1612
Rp1613
(dp1614
g122
F0.2
sg17
S'(0.2, HOME_ZIPCODE)'
p1615
sg21
g1519
sbag0
(g136
g7
Ntp1616
Rp1617
(dp1618
g122
F0.4
sg17
S'(0.4, HOME_ZIPCODE)'
p1619
sg21
g1519
sbag0
(g136
g7
Ntp1620
Rp1621
(dp1622
g122
F0.6
sg17
S'(0.6, HOME_ZIPCODE)'
p1623
sg21
g1519
sbag0
(g136
g7
Ntp1624
Rp1625
(dp1626
g122
F0.8
sg17
S'(0.8, HOME_ZIPCODE)'
p1627
sg21
g1519
sbag0
(g490
g7
Ntp1628
Rp1629
(dp1630
g17
S'(Exists, HOME_ZIPCODE)'
p1631
sg21
g1519
sbasg21
g1519
sg187
S'(HOME_ZIPCODE: ShortString)'
p1632
sg189
F-0.18337611923065492
sg190
I01
sbag0
(g6
g7
Ntp1633
Rp1634
(dp1635
g11
(lp1636
g0
(g13
g7
Ntp1637
Rp1638
(dp1639
g17
S'(wholeFieldPredicate, WORK_STREET)'
p1640
sg19
g20
sg21
S'WORK_STREET'
p1641
sbag0
(g13
g7
Ntp1642
Rp1643
(dp1644
g17
S'(firstTokenPredicate, WORK_STREET)'
p1645
sg19
g27
sg21
g1641
sbag0
(g13
g7
Ntp1646
Rp1647
(dp1648
g17
S'(commonIntegerPredicate, WORK_STREET)'
p1649
sg19
g32
sg21
g1641
sbag0
(g13
g7
Ntp1650
Rp1651
(dp1652
g17
S'(nearIntegersPredicate, WORK_STREET)'
p1653
sg19
g37
sg21
g1641
sbag0
(g13
g7
Ntp1654
Rp1655
(dp1656
g17
S'(firstIntegerPredicate, WORK_STREET)'
p1657
sg19
g42
sg21
g1641
sbag0
(g13
g7
Ntp1658
Rp1659
(dp1660
g17
S'(sameThreeCharStartPredicate, WORK_STREET)'
p1661
sg19
g47
sg21
g1641
sbag0
(g13
g7
Ntp1662
Rp1663
(dp1664
g17
S'(sameFiveCharStartPredicate, WORK_STREET)'
p1665
sg19
g52
sg21
g1641
sbag0
(g13
g7
Ntp1666
Rp1667
(dp1668
g17
S'(sameSevenCharStartPredicate, WORK_STREET)'
p1669
sg19
g57
sg21
g1641
sbag0
(g13
g7
Ntp1670
Rp1671
(dp1672
g17
S'(commonTwoTokens, WORK_STREET)'
p1673
sg19
g62
sg21
g1641
sbag0
(g13
g7
Ntp1674
Rp1675
(dp1676
g17
S'(commonThreeTokens, WORK_STREET)'
p1677
sg19
g67
sg21
g1641
sbag0
(g13
g7
Ntp1678
Rp1679
(dp1680
g17
S'(fingerprint, WORK_STREET)'
p1681
sg19
g72
sg21
g1641
sbag0
(g13
g7
Ntp1682
Rp1683
(dp1684
g17
S'(oneGramFingerprint, WORK_STREET)'
p1685
sg19
g77
sg21
g1641
sbag0
(g13
g7
Ntp1686
Rp1687
(dp1688
g17
S'(twoGramFingerprint, WORK_STREET)'
p1689
sg19
g82
sg21
g1641
sbag0
(g13
g7
Ntp1690
Rp1691
(dp1692
g17
S'(sortedAcronym, WORK_STREET)'
p1693
sg19
g87
sg21
g1641
sbag0
(g13
g7
Ntp1694
Rp1695
(dp1696
g17
S'(commonFourGram, WORK_STREET)'
p1697
sg19
g92
sg21
g1641
sbag0
(g13
g7
Ntp1698
Rp1699
(dp1700
g17
S'(commonSixGram, WORK_STREET)'
p1701
sg19
g97
sg21
g1641
sbag0
(g13
g7
Ntp1702
Rp1703
(dp1704
g17
S'(tokenFieldPredicate, WORK_STREET)'
p1705
sg19
g102
sg21
g1641
sbag0
(g13
g7
Ntp1706
Rp1707
(dp1708
g17
S'(suffixArray, WORK_STREET)'
p1709
sg19
g107
sg21
g1641
sbag0
(g13
g7
Ntp1710
Rp1711
(dp1712
g17
S'(doubleMetaphone, WORK_STREET)'
p1713
sg19
g112
sg21
g1641
sbag0
(g13
g7
Ntp1714
Rp1715
(dp1716
g17
S'(metaphoneToken, WORK_STREET)'
p1717
sg19
g117
sg21
g1641
sbag0
(g118
g7
Ntp1718
Rp1719
(dp1720
g122
F0.2
sg17
S'(0.2, WORK_STREET)'
p1721
sg21
g1641
sbag0
(g118
g7
Ntp1722
Rp1723
(dp1724
g122
F0.4
sg17
S'(0.4, WORK_STREET)'
p1725
sg21
g1641
sbag0
(g118
g7
Ntp1726
Rp1727
(dp1728
g122
F0.6
sg17
S'(0.6, WORK_STREET)'
p1729
sg21
g1641
sbag0
(g118
g7
Ntp1730
Rp1731
(dp1732
g122
F0.8
sg17
S'(0.8, WORK_STREET)'
p1733
sg21
g1641
sbag0
(g136
g7
Ntp1734
Rp1735
(dp1736
g122
F0.2
sg17
S'(0.2, WORK_STREET)'
p1737
sg21
g1641
sbag0
(g136
g7
Ntp1738
Rp1739
(dp1740
g122
F0.4
sg17
S'(0.4, WORK_STREET)'
p1741
sg21
g1641
sbag0
(g136
g7
Ntp1742
Rp1743
(dp1744
g122
F0.6
sg17
S'(0.6, WORK_STREET)'
p1745
sg21
g1641
sbag0
(g136
g7
Ntp1746
Rp1747
(dp1748
g122
F0.8
sg17
S'(0.8, WORK_STREET)'
p1749
sg21
g1641
sbag0
(g153
g7
Ntp1750
Rp1751
(dp1752
g122
F0.2
sg17
S'(0.2, WORK_STREET)'
p1753
sg21
g1641
sbag0
(g153
g7
Ntp1754
Rp1755
(dp1756
g122
F0.4
sg17
S'(0.4, WORK_STREET)'
p1757
sg21
g1641
sbag0
(g153
g7
Ntp1758
Rp1759
(dp1760
g122
F0.6
sg17
S'(0.6, WORK_STREET)'
p1761
sg21
g1641
sbag0
(g153
g7
Ntp1762
Rp1763
(dp1764
g122
F0.8
sg17
S'(0.8, WORK_STREET)'
p1765
sg21
g1641
sbag0
(g170
g7
Ntp1766
Rp1767
(dp1768
g122
F0.2
sg17
S'(0.2, WORK_STREET)'
p1769
sg21
g1641
sbag0
(g170
g7
Ntp1770
Rp1771
(dp1772
g122
F0.4
sg17
S'(0.4, WORK_STREET)'
p1773
sg21
g1641
sbag0
(g170
g7
Ntp1774
Rp1775
(dp1776
g122
F0.6
sg17
S'(0.6, WORK_STREET)'
p1777
sg21
g1641
sbag0
(g170
g7
Ntp1778
Rp1779
(dp1780
g122
F0.8
sg17
S'(0.8, WORK_STREET)'
p1781
sg21
g1641
sbag0
(g490
g7
Ntp1782
Rp1783
(dp1784
g17
S'(Exists, WORK_STREET)'
p1785
sg21
g1641
sbasg21
g1641
sg187
S'(WORK_STREET: String)'
p1786
sg189
F-0.044280935075488734
sg190
I01
sbag0
(g1266
g7
Ntp1787
Rp1788
(dp1789
g11
(lp1790
g0
(g13
g7
Ntp1791
Rp1792
(dp1793
g17
S'(wholeFieldPredicate, WORK_CITY)'
p1794
sg19
g20
sg21
S'WORK_CITY'
p1795
sbag0
(g13
g7
Ntp1796
Rp1797
(dp1798
g17
S'(firstTokenPredicate, WORK_CITY)'
p1799
sg19
g27
sg21
g1795
sbag0
(g13
g7
Ntp1800
Rp1801
(dp1802
g17
S'(commonIntegerPredicate, WORK_CITY)'
p1803
sg19
g32
sg21
g1795
sbag0
(g13
g7
Ntp1804
Rp1805
(dp1806
g17
S'(nearIntegersPredicate, WORK_CITY)'
p1807
sg19
g37
sg21
g1795
sbag0
(g13
g7
Ntp1808
Rp1809
(dp1810
g17
S'(firstIntegerPredicate, WORK_CITY)'
p1811
sg19
g42
sg21
g1795
sbag0
(g13
g7
Ntp1812
Rp1813
(dp1814
g17
S'(sameThreeCharStartPredicate, WORK_CITY)'
p1815
sg19
g47
sg21
g1795
sbag0
(g13
g7
Ntp1816
Rp1817
(dp1818
g17
S'(sameFiveCharStartPredicate, WORK_CITY)'
p1819
sg19
g52
sg21
g1795
sbag0
(g13
g7
Ntp1820
Rp1821
(dp1822
g17
S'(sameSevenCharStartPredicate, WORK_CITY)'
p1823
sg19
g57
sg21
g1795
sbag0
(g13
g7
Ntp1824
Rp1825
(dp1826
g17
S'(commonTwoTokens, WORK_CITY)'
p1827
sg19
g62
sg21
g1795
sbag0
(g13
g7
Ntp1828
Rp1829
(dp1830
g17
S'(commonThreeTokens, WORK_CITY)'
p1831
sg19
g67
sg21
g1795
sbag0
(g13
g7
Ntp1832
Rp1833
(dp1834
g17
S'(fingerprint, WORK_CITY)'
p1835
sg19
g72
sg21
g1795
sbag0
(g13
g7
Ntp1836
Rp1837
(dp1838
g17
S'(oneGramFingerprint, WORK_CITY)'
p1839
sg19
g77
sg21
g1795
sbag0
(g13
g7
Ntp1840
Rp1841
(dp1842
g17
S'(twoGramFingerprint, WORK_CITY)'
p1843
sg19
g82
sg21
g1795
sbag0
(g13
g7
Ntp1844
Rp1845
(dp1846
g17
S'(sortedAcronym, WORK_CITY)'
p1847
sg19
g87
sg21
g1795
sbag0
(g13
g7
Ntp1848
Rp1849
(dp1850
g17
S'(commonFourGram, WORK_CITY)'
p1851
sg19
g92
sg21
g1795
sbag0
(g13
g7
Ntp1852
Rp1853
(dp1854
g17
S'(commonSixGram, WORK_CITY)'
p1855
sg19
g97
sg21
g1795
sbag0
(g13
g7
Ntp1856
Rp1857
(dp1858
g17
S'(tokenFieldPredicate, WORK_CITY)'
p1859
sg19
g102
sg21
g1795
sbag0
(g13
g7
Ntp1860
Rp1861
(dp1862
g17
S'(suffixArray, WORK_CITY)'
p1863
sg19
g107
sg21
g1795
sbag0
(g13
g7
Ntp1864
Rp1865
(dp1866
g17
S'(doubleMetaphone, WORK_CITY)'
p1867
sg19
g112
sg21
g1795
sbag0
(g13
g7
Ntp1868
Rp1869
(dp1870
g17
S'(metaphoneToken, WORK_CITY)'
p1871
sg19
g117
sg21
g1795
sbag0
(g118
g7
Ntp1872
Rp1873
(dp1874
g122
F0.2
sg17
S'(0.2, WORK_CITY)'
p1875
sg21
g1795
sbag0
(g118
g7
Ntp1876
Rp1877
(dp1878
g122
F0.4
sg17
S'(0.4, WORK_CITY)'
p1879
sg21
g1795
sbag0
(g118
g7
Ntp1880
Rp1881
(dp1882
g122
F0.6
sg17
S'(0.6, WORK_CITY)'
p1883
sg21
g1795
sbag0
(g118
g7
Ntp1884
Rp1885
(dp1886
g122
F0.8
sg17
S'(0.8, WORK_CITY)'
p1887
sg21
g1795
sbag0
(g136
g7
Ntp1888
Rp1889
(dp1890
g122
F0.2
sg17
S'(0.2, WORK_CITY)'
p1891
sg21
g1795
sbag0
(g136
g7
Ntp1892
Rp1893
(dp1894
g122
F0.4
sg17
S'(0.4, WORK_CITY)'
p1895
sg21
g1795
sbag0
(g136
g7
Ntp1896
Rp1897
(dp1898
g122
F0.6
sg17
S'(0.6, WORK_CITY)'
p1899
sg21
g1795
sbag0
(g136
g7
Ntp1900
Rp1901
(dp1902
g122
F0.8
sg17
S'(0.8, WORK_CITY)'
p1903
sg21
g1795
sbag0
(g490
g7
Ntp1904
Rp1905
(dp1906
g17
S'(Exists, WORK_CITY)'
p1907
sg21
g1795
sbasg21
g1795
sg187
S'(WORK_CITY: ShortString)'
p1908
sg189
F-0.02190382397793272
sg190
I01
sbag0
(g1266
g7
Ntp1909
Rp1910
(dp1911
g11
(lp1912
g0
(g13
g7
Ntp1913
Rp1914
(dp1915
g17
S'(wholeFieldPredicate, WORK_STATE)'
p1916
sg19
g20
sg21
S'WORK_STATE'
p1917
sbag0
(g13
g7
Ntp1918
Rp1919
(dp1920
g17
S'(firstTokenPredicate, WORK_STATE)'
p1921
sg19
g27
sg21
g1917
sbag0
(g13
g7
Ntp1922
Rp1923
(dp1924
g17
S'(commonIntegerPredicate, WORK_STATE)'
p1925
sg19
g32
sg21
g1917
sbag0
(g13
g7
Ntp1926
Rp1927
(dp1928
g17
S'(nearIntegersPredicate, WORK_STATE)'
p1929
sg19
g37
sg21
g1917
sbag0
(g13
g7
Ntp1930
Rp1931
(dp1932
g17
S'(firstIntegerPredicate, WORK_STATE)'
p1933
sg19
g42
sg21
g1917
sbag0
(g13
g7
Ntp1934
Rp1935
(dp1936
g17
S'(sameThreeCharStartPredicate, WORK_STATE)'
p1937
sg19
g47
sg21
g1917
sbag0
(g13
g7
Ntp1938
Rp1939
(dp1940
g17
S'(sameFiveCharStartPredicate, WORK_STATE)'
p1941
sg19
g52
sg21
g1917
sbag0
(g13
g7
Ntp1942
Rp1943
(dp1944
g17
S'(sameSevenCharStartPredicate, WORK_STATE)'
p1945
sg19
g57
sg21
g1917
sbag0
(g13
g7
Ntp1946
Rp1947
(dp1948
g17
S'(commonTwoTokens, WORK_STATE)'
p1949
sg19
g62
sg21
g1917
sbag0
(g13
g7
Ntp1950
Rp1951
(dp1952
g17
S'(commonThreeTokens, WORK_STATE)'
p1953
sg19
g67
sg21
g1917
sbag0
(g13
g7
Ntp1954
Rp1955
(dp1956
g17
S'(fingerprint, WORK_STATE)'
p1957
sg19
g72
sg21
g1917
sbag0
(g13
g7
Ntp1958
Rp1959
(dp1960
g17
S'(oneGramFingerprint, WORK_STATE)'
p1961
sg19
g77
sg21
g1917
sbag0
(g13
g7
Ntp1962
Rp1963
(dp1964
g17
S'(twoGramFingerprint, WORK_STATE)'
p1965
sg19
g82
sg21
g1917
sbag0
(g13
g7
Ntp1966
Rp1967
(dp1968
g17
S'(sortedAcronym, WORK_STATE)'
p1969
sg19
g87
sg21
g1917
sbag0
(g13
g7
Ntp1970
Rp1971
(dp1972
g17
S'(commonFourGram, WORK_STATE)'
p1973
sg19
g92
sg21
g1917
sbag0
(g13
g7
Ntp1974
Rp1975
(dp1976
g17
S'(commonSixGram, WORK_STATE)'
p1977
sg19
g97
sg21
g1917
sbag0
(g13
g7
Ntp1978
Rp1979
(dp1980
g17
S'(tokenFieldPredicate, WORK_STATE)'
p1981
sg19
g102
sg21
g1917
sbag0
(g13
g7
Ntp1982
Rp1983
(dp1984
g17
S'(suffixArray, WORK_STATE)'
p1985
sg19
g107
sg21
g1917
sbag0
(g13
g7
Ntp1986
Rp1987
(dp1988
g17
S'(doubleMetaphone, WORK_STATE)'
p1989
sg19
g112
sg21
g1917
sbag0
(g13
g7
Ntp1990
Rp1991
(dp1992
g17
S'(metaphoneToken, WORK_STATE)'
p1993
sg19
g117
sg21
g1917
sbag0
(g118
g7
Ntp1994
Rp1995
(dp1996
g122
F0.2
sg17
S'(0.2, WORK_STATE)'
p1997
sg21
g1917
sbag0
(g118
g7
Ntp1998
Rp1999
(dp2000
g122
F0.4
sg17
S'(0.4, WORK_STATE)'
p2001
sg21
g1917
sbag0
(g118
g7
Ntp2002
Rp2003
(dp2004
g122
F0.6
sg17
S'(0.6, WORK_STATE)'
p2005
sg21
g1917
sbag0
(g118
g7
Ntp2006
Rp2007
(dp2008
g122
F0.8
sg17
S'(0.8, WORK_STATE)'
p2009
sg21
g1917
sbag0
(g136
g7
Ntp2010
Rp2011
(dp2012
g122
F0.2
sg17
S'(0.2, WORK_STATE)'
p2013
sg21
g1917
sbag0
(g136
g7
Ntp2014
Rp2015
(dp2016
g122
F0.4
sg17
S'(0.4, WORK_STATE)'
p2017
sg21
g1917
sbag0
(g136
g7
Ntp2018
Rp2019
(dp2020
g122
F0.6
sg17
S'(0.6, WORK_STATE)'
p2021
sg21
g1917
sbag0
(g136
g7
Ntp2022
Rp2023
(dp2024
g122
F0.8
sg17
S'(0.8, WORK_STATE)'
p2025
sg21
g1917
sbag0
(g490
g7
Ntp2026
Rp2027
(dp2028
g17
S'(Exists, WORK_STATE)'
p2029
sg21
g1917
sbasg21
g1917
sg187
S'(WORK_STATE: ShortString)'
p2030
sg189
F-0.011491825208166773
sg190
I01
sbag0
(g1266
g7
Ntp2031
Rp2032
(dp2033
g11
(lp2034
g0
(g13
g7
Ntp2035
Rp2036
(dp2037
g17
S'(wholeFieldPredicate, WORK_ZIPCODE)'
p2038
sg19
g20
sg21
S'WORK_ZIPCODE'
p2039
sbag0
(g13
g7
Ntp2040
Rp2041
(dp2042
g17
S'(firstTokenPredicate, WORK_ZIPCODE)'
p2043
sg19
g27
sg21
g2039
sbag0
(g13
g7
Ntp2044
Rp2045
(dp2046
g17
S'(commonIntegerPredicate, WORK_ZIPCODE)'
p2047
sg19
g32
sg21
g2039
sbag0
(g13
g7
Ntp2048
Rp2049
(dp2050
g17
S'(nearIntegersPredicate, WORK_ZIPCODE)'
p2051
sg19
g37
sg21
g2039
sbag0
(g13
g7
Ntp2052
Rp2053
(dp2054
g17
S'(firstIntegerPredicate, WORK_ZIPCODE)'
p2055
sg19
g42
sg21
g2039
sbag0
(g13
g7
Ntp2056
Rp2057
(dp2058
g17
S'(sameThreeCharStartPredicate, WORK_ZIPCODE)'
p2059
sg19
g47
sg21
g2039
sbag0
(g13
g7
Ntp2060
Rp2061
(dp2062
g17
S'(sameFiveCharStartPredicate, WORK_ZIPCODE)'
p2063
sg19
g52
sg21
g2039
sbag0
(g13
g7
Ntp2064
Rp2065
(dp2066
g17
S'(sameSevenCharStartPredicate, WORK_ZIPCODE)'
p2067
sg19
g57
sg21
g2039
sbag0
(g13
g7
Ntp2068
Rp2069
(dp2070
g17
S'(commonTwoTokens, WORK_ZIPCODE)'
p2071
sg19
g62
sg21
g2039
sbag0
(g13
g7
Ntp2072
Rp2073
(dp2074
g17
S'(commonThreeTokens, WORK_ZIPCODE)'
p2075
sg19
g67
sg21
g2039
sbag0
(g13
g7
Ntp2076
Rp2077
(dp2078
g17
S'(fingerprint, WORK_ZIPCODE)'
p2079
sg19
g72
sg21
g2039
sbag0
(g13
g7
Ntp2080
Rp2081
(dp2082
g17
S'(oneGramFingerprint, WORK_ZIPCODE)'
p2083
sg19
g77
sg21
g2039
sbag0
(g13
g7
Ntp2084
Rp2085
(dp2086
g17
S'(twoGramFingerprint, WORK_ZIPCODE)'
p2087
sg19
g82
sg21
g2039
sbag0
(g13
g7
Ntp2088
Rp2089
(dp2090
g17
S'(sortedAcronym, WORK_ZIPCODE)'
p2091
sg19
g87
sg21
g2039
sbag0
(g13
g7
Ntp2092
Rp2093
(dp2094
g17
S'(commonFourGram, WORK_ZIPCODE)'
p2095
sg19
g92
sg21
g2039
sbag0
(g13
g7
Ntp2096
Rp2097
(dp2098
g17
S'(commonSixGram, WORK_ZIPCODE)'
p2099
sg19
g97
sg21
g2039
sbag0
(g13
g7
Ntp2100
Rp2101
(dp2102
g17
S'(tokenFieldPredicate, WORK_ZIPCODE)'
p2103
sg19
g102
sg21
g2039
sbag0
(g13
g7
Ntp2104
Rp2105
(dp2106
g17
S'(suffixArray, WORK_ZIPCODE)'
p2107
sg19
g107
sg21
g2039
sbag0
(g13
g7
Ntp2108
Rp2109
(dp2110
g17
S'(doubleMetaphone, WORK_ZIPCODE)'
p2111
sg19
g112
sg21
g2039
sbag0
(g13
g7
Ntp2112
Rp2113
(dp2114
g17
S'(metaphoneToken, WORK_ZIPCODE)'
p2115
sg19
g117
sg21
g2039
sbag0
(g118
g7
Ntp2116
Rp2117
(dp2118
g122
F0.2
sg17
S'(0.2, WORK_ZIPCODE)'
p2119
sg21
g2039
sbag0
(g118
g7
Ntp2120
Rp2121
(dp2122
g122
F0.4
sg17
S'(0.4, WORK_ZIPCODE)'
p2123
sg21
g2039
sbag0
(g118
g7
Ntp2124
Rp2125
(dp2126
g122
F0.6
sg17
S'(0.6, WORK_ZIPCODE)'
p2127
sg21
g2039
sbag0
(g118
g7
Ntp2128
Rp2129
(dp2130
g122
F0.8
sg17
S'(0.8, WORK_ZIPCODE)'
p2131
sg21
g2039
sbag0
(g136
g7
Ntp2132
Rp2133
(dp2134
g122
F0.2
sg17
S'(0.2, WORK_ZIPCODE)'
p2135
sg21
g2039
sbag0
(g136
g7
Ntp2136
Rp2137
(dp2138
g122
F0.4
sg17
S'(0.4, WORK_ZIPCODE)'
p2139
sg21
g2039
sbag0
(g136
g7
Ntp2140
Rp2141
(dp2142
g122
F0.6
sg17
S'(0.6, WORK_ZIPCODE)'
p2143
sg21
g2039
sbag0
(g136
g7
Ntp2144
Rp2145
(dp2146
g122
F0.8
sg17
S'(0.8, WORK_ZIPCODE)'
p2147
sg21
g2039
sbag0
(g490
g7
Ntp2148
Rp2149
(dp2150
g17
S'(Exists, WORK_ZIPCODE)'
p2151
sg21
g2039
sbasg21
g2039
sg187
S'(WORK_ZIPCODE: ShortString)'
p2152
sg189
F0.004812714557054084
sg190
I01
sbag0
(g6
g7
Ntp2153
Rp2154
(dp2155
g11
(lp2156
g0
(g13
g7
Ntp2157
Rp2158
(dp2159
g17
S'(wholeFieldPredicate, HOME_PHONE)'
p2160
sg19
g20
sg21
S'HOME_PHONE'
p2161
sbag0
(g13
g7
Ntp2162
Rp2163
(dp2164
g17
S'(firstTokenPredicate, HOME_PHONE)'
p2165
sg19
g27
sg21
g2161
sbag0
(g13
g7
Ntp2166
Rp2167
(dp2168
g17
S'(commonIntegerPredicate, HOME_PHONE)'
p2169
sg19
g32
sg21
g2161
sbag0
(g13
g7
Ntp2170
Rp2171
(dp2172
g17
S'(nearIntegersPredicate, HOME_PHONE)'
p2173
sg19
g37
sg21
g2161
sbag0
(g13
g7
Ntp2174
Rp2175
(dp2176
g17
S'(firstIntegerPredicate, HOME_PHONE)'
p2177
sg19
g42
sg21
g2161
sbag0
(g13
g7
Ntp2178
Rp2179
(dp2180
g17
S'(sameThreeCharStartPredicate, HOME_PHONE)'
p2181
sg19
g47
sg21
g2161
sbag0
(g13
g7
Ntp2182
Rp2183
(dp2184
g17
S'(sameFiveCharStartPredicate, HOME_PHONE)'
p2185
sg19
g52
sg21
g2161
sbag0
(g13
g7
Ntp2186
Rp2187
(dp2188
g17
S'(sameSevenCharStartPredicate, HOME_PHONE)'
p2189
sg19
g57
sg21
g2161
sbag0
(g13
g7
Ntp2190
Rp2191
(dp2192
g17
S'(commonTwoTokens, HOME_PHONE)'
p2193
sg19
g62
sg21
g2161
sbag0
(g13
g7
Ntp2194
Rp2195
(dp2196
g17
S'(commonThreeTokens, HOME_PHONE)'
p2197
sg19
g67
sg21
g2161
sbag0
(g13
g7
Ntp2198
Rp2199
(dp2200
g17
S'(fingerprint, HOME_PHONE)'
p2201
sg19
g72
sg21
g2161
sbag0
(g13
g7
Ntp2202
Rp2203
(dp2204
g17
S'(oneGramFingerprint, HOME_PHONE)'
p2205
sg19
g77
sg21
g2161
sbag0
(g13
g7
Ntp2206
Rp2207
(dp2208
g17
S'(twoGramFingerprint, HOME_PHONE)'
p2209
sg19
g82
sg21
g2161
sbag0
(g13
g7
Ntp2210
Rp2211
(dp2212
g17
S'(sortedAcronym, HOME_PHONE)'
p2213
sg19
g87
sg21
g2161
sbag0
(g13
g7
Ntp2214
Rp2215
(dp2216
g17
S'(commonFourGram, HOME_PHONE)'
p2217
sg19
g92
sg21
g2161
sbag0
(g13
g7
Ntp2218
Rp2219
(dp2220
g17
S'(commonSixGram, HOME_PHONE)'
p2221
sg19
g97
sg21
g2161
sbag0
(g13
g7
Ntp2222
Rp2223
(dp2224
g17
S'(tokenFieldPredicate, HOME_PHONE)'
p2225
sg19
g102
sg21
g2161
sbag0
(g13
g7
Ntp2226
Rp2227
(dp2228
g17
S'(suffixArray, HOME_PHONE)'
p2229
sg19
g107
sg21
g2161
sbag0
(g13
g7
Ntp2230
Rp2231
(dp2232
g17
S'(doubleMetaphone, HOME_PHONE)'
p2233
sg19
g112
sg21
g2161
sbag0
(g13
g7
Ntp2234
Rp2235
(dp2236
g17
S'(metaphoneToken, HOME_PHONE)'
p2237
sg19
g117
sg21
g2161
sbag0
(g118
g7
Ntp2238
Rp2239
(dp2240
g122
F0.2
sg17
S'(0.2, HOME_PHONE)'
p2241
sg21
g2161
sbag0
(g118
g7
Ntp2242
Rp2243
(dp2244
g122
F0.4
sg17
S'(0.4, HOME_PHONE)'
p2245
sg21
g2161
sbag0
(g118
g7
Ntp2246
Rp2247
(dp2248
g122
F0.6
sg17
S'(0.6, HOME_PHONE)'
p2249
sg21
g2161
sbag0
(g118
g7
Ntp2250
Rp2251
(dp2252
g122
F0.8
sg17
S'(0.8, HOME_PHONE)'
p2253
sg21
g2161
sbag0
(g136
g7
Ntp2254
Rp2255
(dp2256
g122
F0.2
sg17
S'(0.2, HOME_PHONE)'
p2257
sg21
g2161
sbag0
(g136
g7
Ntp2258
Rp2259
(dp2260
g122
F0.4
sg17
S'(0.4, HOME_PHONE)'
p2261
sg21
g2161
sbag0
(g136
g7
Ntp2262
Rp2263
(dp2264
g122
F0.6
sg17
S'(0.6, HOME_PHONE)'
p2265
sg21
g2161
sbag0
(g136
g7
Ntp2266
Rp2267
(dp2268
g122
F0.8
sg17
S'(0.8, HOME_PHONE)'
p2269
sg21
g2161
sbag0
(g153
g7
Ntp2270
Rp2271
(dp2272
g122
F0.2
sg17
S'(0.2, HOME_PHONE)'
p2273
sg21
g2161
sbag0
(g153
g7
Ntp2274
Rp2275
(dp2276
g122
F0.4
sg17
S'(0.4, HOME_PHONE)'
p2277
sg21
g2161
sbag0
(g153
g7
Ntp2278
Rp2279
(dp2280
g122
F0.6
sg17
S'(0.6, HOME_PHONE)'
p2281
sg21
g2161
sbag0
(g153
g7
Ntp2282
Rp2283
(dp2284
g122
F0.8
sg17
S'(0.8, HOME_PHONE)'
p2285
sg21
g2161
sbag0
(g170
g7
Ntp2286
Rp2287
(dp2288
g122
F0.2
sg17
S'(0.2, HOME_PHONE)'
p2289
sg21
g2161
sbag0
(g170
g7
Ntp2290
Rp2291
(dp2292
g122
F0.4
sg17
S'(0.4, HOME_PHONE)'
p2293
sg21
g2161
sbag0
(g170
g7
Ntp2294
Rp2295
(dp2296
g122
F0.6
sg17
S'(0.6, HOME_PHONE)'
p2297
sg21
g2161
sbag0
(g170
g7
Ntp2298
Rp2299
(dp2300
g122
F0.8
sg17
S'(0.8, HOME_PHONE)'
p2301
sg21
g2161
sbag0
(g490
g7
Ntp2302
Rp2303
(dp2304
g17
S'(Exists, HOME_PHONE)'
p2305
sg21
g2161
sbasg21
g2161
sg187
S'(HOME_PHONE: String)'
p2306
sg189
F0.003489197102734704
sg190
I01
sbag0
(g6
g7
Ntp2307
Rp2308
(dp2309
g11
(lp2310
g0
(g13
g7
Ntp2311
Rp2312
(dp2313
g17
S'(wholeFieldPredicate, WORK_PHONE)'
p2314
sg19
g20
sg21
S'WORK_PHONE'
p2315
sbag0
(g13
g7
Ntp2316
Rp2317
(dp2318
g17
S'(firstTokenPredicate, WORK_PHONE)'
p2319
sg19
g27
sg21
g2315
sbag0
(g13
g7
Ntp2320
Rp2321
(dp2322
g17
S'(commonIntegerPredicate, WORK_PHONE)'
p2323
sg19
g32
sg21
g2315
sbag0
(g13
g7
Ntp2324
Rp2325
(dp2326
g17
S'(nearIntegersPredicate, WORK_PHONE)'
p2327
sg19
g37
sg21
g2315
sbag0
(g13
g7
Ntp2328
Rp2329
(dp2330
g17
S'(firstIntegerPredicate, WORK_PHONE)'
p2331
sg19
g42
sg21
g2315
sbag0
(g13
g7
Ntp2332
Rp2333
(dp2334
g17
S'(sameThreeCharStartPredicate, WORK_PHONE)'
p2335
sg19
g47
sg21
g2315
sbag0
(g13
g7
Ntp2336
Rp2337
(dp2338
g17
S'(sameFiveCharStartPredicate, WORK_PHONE)'
p2339
sg19
g52
sg21
g2315
sbag0
(g13
g7
Ntp2340
Rp2341
(dp2342
g17
S'(sameSevenCharStartPredicate, WORK_PHONE)'
p2343
sg19
g57
sg21
g2315
sbag0
(g13
g7
Ntp2344
Rp2345
(dp2346
g17
S'(commonTwoTokens, WORK_PHONE)'
p2347
sg19
g62
sg21
g2315
sbag0
(g13
g7
Ntp2348
Rp2349
(dp2350
g17
S'(commonThreeTokens, WORK_PHONE)'
p2351
sg19
g67
sg21
g2315
sbag0
(g13
g7
Ntp2352
Rp2353
(dp2354
g17
S'(fingerprint, WORK_PHONE)'
p2355
sg19
g72
sg21
g2315
sbag0
(g13
g7
Ntp2356
Rp2357
(dp2358
g17
S'(oneGramFingerprint, WORK_PHONE)'
p2359
sg19
g77
sg21
g2315
sbag0
(g13
g7
Ntp2360
Rp2361
(dp2362
g17
S'(twoGramFingerprint, WORK_PHONE)'
p2363
sg19
g82
sg21
g2315
sbag0
(g13
g7
Ntp2364
Rp2365
(dp2366
g17
S'(sortedAcronym, WORK_PHONE)'
p2367
sg19
g87
sg21
g2315
sbag0
(g13
g7
Ntp2368
Rp2369
(dp2370
g17
S'(commonFourGram, WORK_PHONE)'
p2371
sg19
g92
sg21
g2315
sbag0
(g13
g7
Ntp2372
Rp2373
(dp2374
g17
S'(commonSixGram, WORK_PHONE)'
p2375
sg19
g97
sg21
g2315
sbag0
(g13
g7
Ntp2376
Rp2377
(dp2378
g17
S'(tokenFieldPredicate, WORK_PHONE)'
p2379
sg19
g102
sg21
g2315
sbag0
(g13
g7
Ntp2380
Rp2381
(dp2382
g17
S'(suffixArray, WORK_PHONE)'
p2383
sg19
g107
sg21
g2315
sbag0
(g13
g7
Ntp2384
Rp2385
(dp2386
g17
S'(doubleMetaphone, WORK_PHONE)'
p2387
sg19
g112
sg21
g2315
sbag0
(g13
g7
Ntp2388
Rp2389
(dp2390
g17
S'(metaphoneToken, WORK_PHONE)'
p2391
sg19
g117
sg21
g2315
sbag0
(g118
g7
Ntp2392
Rp2393
(dp2394
g122
F0.2
sg17
S'(0.2, WORK_PHONE)'
p2395
sg21
g2315
sbag0
(g118
g7
Ntp2396
Rp2397
(dp2398
g122
F0.4
sg17
S'(0.4, WORK_PHONE)'
p2399
sg21
g2315
sbag0
(g118
g7
Ntp2400
Rp2401
(dp2402
g122
F0.6
sg17
S'(0.6, WORK_PHONE)'
p2403
sg21
g2315
sbag0
(g118
g7
Ntp2404
Rp2405
(dp2406
g122
F0.8
sg17
S'(0.8, WORK_PHONE)'
p2407
sg21
g2315
sbag0
(g136
g7
Ntp2408
Rp2409
(dp2410
g122
F0.2
sg17
S'(0.2, WORK_PHONE)'
p2411
sg21
g2315
sbag0
(g136
g7
Ntp2412
Rp2413
(dp2414
g122
F0.4
sg17
S'(0.4, WORK_PHONE)'
p2415
sg21
g2315
sbag0
(g136
g7
Ntp2416
Rp2417
(dp2418
g122
F0.6
sg17
S'(0.6, WORK_PHONE)'
p2419
sg21
g2315
sbag0
(g136
g7
Ntp2420
Rp2421
(dp2422
g122
F0.8
sg17
S'(0.8, WORK_PHONE)'
p2423
sg21
g2315
sbag0
(g153
g7
Ntp2424
Rp2425
(dp2426
g122
F0.2
sg17
S'(0.2, WORK_PHONE)'
p2427
sg21
g2315
sbag0
(g153
g7
Ntp2428
Rp2429
(dp2430
g122
F0.4
sg17
S'(0.4, WORK_PHONE)'
p2431
sg21
g2315
sbag0
(g153
g7
Ntp2432
Rp2433
(dp2434
g122
F0.6
sg17
S'(0.6, WORK_PHONE)'
p2435
sg21
g2315
sbag0
(g153
g7
Ntp2436
Rp2437
(dp2438
g122
F0.8
sg17
S'(0.8, WORK_PHONE)'
p2439
sg21
g2315
sbag0
(g170
g7
Ntp2440
Rp2441
(dp2442
g122
F0.2
sg17
S'(0.2, WORK_PHONE)'
p2443
sg21
g2315
sbag0
(g170
g7
Ntp2444
Rp2445
(dp2446
g122
F0.4
sg17
S'(0.4, WORK_PHONE)'
p2447
sg21
g2315
sbag0
(g170
g7
Ntp2448
Rp2449
(dp2450
g122
F0.6
sg17
S'(0.6, WORK_PHONE)'
p2451
sg21
g2315
sbag0
(g170
g7
Ntp2452
Rp2453
(dp2454
g122
F0.8
sg17
S'(0.8, WORK_PHONE)'
p2455
sg21
g2315
sbag0
(g490
g7
Ntp2456
Rp2457
(dp2458
g17
S'(Exists, WORK_PHONE)'
p2459
sg21
g2315
sbasg21
g2315
sg187
S'(WORK_PHONE: String)'
p2460
sg189
F-0.0546131380147768
sg190
I01
sbag0
(cdedupe.variables.set
SetType
p2461
g7
Ntp2462
Rp2463
(dp2464
g187
S'(EMAILS: Set)'
p2465
sS'comparator'
p2466
g0
(csimplecosine.cosine
CosineSetSimilarity
p2467
g7
Ntp2468
Rp2469
(dp2470
S'default_score'
p2471
F1.0
sS'vectors'
p2472
(dp2473
sS'doc_freq'
p2474
(dp2475
sbsg189
F0.0970938576975715
sg21
S'EMAILS'
p2476
sg190
I01
sg11
(lp2477
g0
(g13
g7
Ntp2478
Rp2479
(dp2480
g17
S'(wholeSetPredicate, EMAILS)'
p2481
sg19
cdedupe.predicates
wholeSetPredicate
p2482
sg21
g2476
sbag0
(g13
g7
Ntp2483
Rp2484
(dp2485
g17
S'(commonSetElementPredicate, EMAILS)'
p2486
sg19
cdedupe.predicates
commonSetElementPredicate
p2487
sg21
g2476
sbag0
(g13
g7
Ntp2488
Rp2489
(dp2490
g17
S'(lastSetElementPredicate, EMAILS)'
p2491
sg19
cdedupe.predicates
lastSetElementPredicate
p2492
sg21
g2476
sbag0
(g13
g7
Ntp2493
Rp2494
(dp2495
g17
S'(commonTwoElementsPredicate, EMAILS)'
p2496
sg19
cdedupe.predicates
commonTwoElementsPredicate
p2497
sg21
g2476
sbag0
(g13
g7
Ntp2498
Rp2499
(dp2500
g17
S'(commonThreeElementsPredicate, EMAILS)'
p2501
sg19
cdedupe.predicates
commonThreeElementsPredicate
p2502
sg21
g2476
sbag0
(g13
g7
Ntp2503
Rp2504
(dp2505
g17
S'(magnitudeOfCardinality, EMAILS)'
p2506
sg19
cdedupe.predicates
magnitudeOfCardinality
p2507
sg21
g2476
sbag0
(g13
g7
Ntp2508
Rp2509
(dp2510
g17
S'(firstSetElementPredicate, EMAILS)'
p2511
sg19
cdedupe.predicates
firstSetElementPredicate
p2512
sg21
g2476
sbag0
(cdedupe.predicates
TfidfSetSearchPredicate
p2513
g7
Ntp2514
Rp2515
(dp2516
g122
F0.2
sg17
S'(0.2, EMAILS)'
p2517
sg21
g2476
sbag0
(g2513
g7
Ntp2518
Rp2519
(dp2520
g122
F0.4
sg17
S'(0.4, EMAILS)'
p2521
sg21
g2476
sbag0
(g2513
g7
Ntp2522
Rp2523
(dp2524
g122
F0.6
sg17
S'(0.6, EMAILS)'
p2525
sg21
g2476
sbag0
(g2513
g7
Ntp2526
Rp2527
(dp2528
g122
F0.8
sg17
S'(0.8, EMAILS)'
p2529
sg21
g2476
sbag0
(cdedupe.predicates
TfidfSetCanopyPredicate
p2530
g7
Ntp2531
Rp2532
(dp2533
g122
F0.2
sg17
S'(0.2, EMAILS)'
p2534
sg21
g2476
sbag0
(g2530
g7
Ntp2535
Rp2536
(dp2537
g122
F0.4
sg17
S'(0.4, EMAILS)'
p2538
sg21
g2476
sbag0
(g2530
g7
Ntp2539
Rp2540
(dp2541
g122
F0.6
sg17
S'(0.6, EMAILS)'
p2542
sg21
g2476
sbag0
(g2530
g7
Ntp2543
Rp2544
(dp2545
g122
F0.8
sg17
S'(0.8, EMAILS)'
p2546
sg21
g2476
sbag0
(g490
g7
Ntp2547
Rp2548
(dp2549
g17
S'(Exists, EMAILS)'
p2550
sg21
g2476
sbasbag0
(cdedupe.variables.base
MissingDataType
p2551
g7
Ntp2552
Rp2553
(dp2554
g190
I00
sg187
S'((PREFIX: String): Not Missing)'
p2555
sg189
F0.04919098187724698
sbag0
(g2551
g7
Ntp2556
Rp2557
(dp2558
g190
I00
sg187
S'((SUFFIX: String): Not Missing)'
p2559
sg189
F0.017749819913017478
sbag0
(g2551
g7
Ntp2560
Rp2561
(dp2562
g190
I00
sg187
S'((INDUSTRY: String): Not Missing)'
p2563
sg189
F0.04979526729468844
sbag0
(g2551
g7
Ntp2564
Rp2565
(dp2566
g190
I00
sg187
S'((COMPANY: String): Not Missing)'
p2567
sg189
F0.10673815134191407
sbag0
(g2551
g7
Ntp2568
Rp2569
(dp2570
g190
I00
sg187
S'((JOB_TITLE: String): Not Missing)'
p2571
sg189
F0.11762369683230554
sbag0
(g2551
g7
Ntp2572
Rp2573
(dp2574
g190
I00
sg187
S'((HOME_STREET: String): Not Missing)'
p2575
sg189
F0.13804527209054518
sbag0
(g2551
g7
Ntp2576
Rp2577
(dp2578
g190
I00
sg187
S'((HOME_CITY: ShortString): Not Missing)'
p2579
sg189
F0.12818632514331038
sbag0
(g2551
g7
Ntp2580
Rp2581
(dp2582
g190
I00
sg187
S'((HOME_STATE: ShortString): Not Missing)'
p2583
sg189
F0.12293178602145499
sbag0
(g2551
g7
Ntp2584
Rp2585
(dp2586
g190
I00
sg187
S'((HOME_ZIPCODE: ShortString): Not Missing)'
p2587
sg189
F0.13480383228768314
sbag0
(g2551
g7
Ntp2588
Rp2589
(dp2590
g190
I00
sg187
S'((WORK_STREET: String): Not Missing)'
p2591
sg189
F0.11409056920581535
sbag0
(g2551
g7
Ntp2592
Rp2593
(dp2594
g190
I00
sg187
S'((WORK_CITY: ShortString): Not Missing)'
p2595
sg189
F0.11183341938869462
sbag0
(g2551
g7
Ntp2596
Rp2597
(dp2598
g190
I00
sg187
S'((WORK_STATE: ShortString): Not Missing)'
p2599
sg189
F0.10610113835040348
sbag0
(g2551
g7
Ntp2600
Rp2601
(dp2602
g190
I00
sg187
S'((WORK_ZIPCODE: ShortString): Not Missing)'
p2603
sg189
F0.11183341938869462
sbag0
(g2551
g7
Ntp2604
Rp2605
(dp2606
g190
I00
sg187
S'((HOME_PHONE: String): Not Missing)'
p2607
sg189
F0.09687041909529381
sbag0
(g2551
g7
Ntp2608
Rp2609
(dp2610
g190
I00
sg187
S'((WORK_PHONE: String): Not Missing)'
p2611
sg189
F0.06952335966411012
sbag0
(g2551
g7
Ntp2612
Rp2613
(dp2614
g190
I00
sg187
S'((EMAILS: Set): Not Missing)'
p2615
sg189
F0.08253361829855639
sbasS'bias'
p2616
cnumpy.core.multiarray
scalar
p2617
(cnumpy
dtype
p2618
(S'f8'
p2619
I0
I1
tp2620
Rp2621
(I3
S'<'
p2622
NNNI-1
I-1
I0
tp2623
bS'\xd0<\x19k\x84\x1e\xf4?'
p2624
tp2625
Rp2626
stp2627
Rp2628
(dp2629
S'primary_fields'
p2630
(lp2631
g9
ag192
ag342
ag497
ag651
ag805
ag959
ag1113
ag1268
ag1390
ag1512
ag1634
ag1788
ag1910
ag2032
ag2154
ag2308
ag2463
asS'n_fields'
p2632
I34
sS'derived_start'
p2633
I18
sb.(ccopy_reg
_reconstructor
p0
(cdedupe.predicates
CompoundPredicate
p1
c__builtin__
object
p2
Ntp3
Rp4
(dp5
S'predicates'
p6
(g0
(cdedupe.predicates
SimplePredicate
p7
g2
Ntp8
Rp9
(dp10
S'__name__'
p11
S'(metaphoneToken, JOB_TITLE)'
p12
sS'func'
p13
cdedupe.predicates
metaphoneToken
p14
sS'field'
p15
S'JOB_TITLE'
p16
sbg0
(cdedupe.predicates
ExistsPredicate
p17
g2
Ntp18
Rp19
(dp20
g11
S'(Exists, HOME_PHONE)'
p21
sg15
S'HOME_PHONE'
p22
sbtp23
sg11
V(SimplePredicate: (metaphoneToken, JOB_TITLE), ExistsPredicate: (Exists, HOME_PHONE))
p24
sbg0
(g1
g2
Ntp25
Rp26
(dp27
g6
(g0
(g7
g2
Ntp28
Rp29
(dp30
g11
S'(tokenFieldPredicate, LAST_NAME)'
p31
sg13
cdedupe.predicates
tokenFieldPredicate
p32
sg15
S'LAST_NAME'
p33
sbg0
(g7
g2
Ntp34
Rp35
(dp36
g11
S'(sortedAcronym, FIRST_NAME)'
p37
sg13
cdedupe.predicates
sortedAcronym
p38
sg15
S'FIRST_NAME'
p39
sbtp40
sg11
V(SimplePredicate: (tokenFieldPredicate, LAST_NAME), SimplePredicate: (sortedAcronym, FIRST_NAME))
p41
sbg0
(g1
g2
Ntp42
Rp43
(dp44
g6
(g0
(g7
g2
Ntp45
Rp46
(dp47
g11
S'(lastSetElementPredicate, EMAILS)'
p48
sg13
cdedupe.predicates
lastSetElementPredicate
p49
sg15
S'EMAILS'
p50
sbg0
(cdedupe.predicates
TfidfNGramSearchPredicate
p51
g2
Ntp52
Rp53
(dp54
S'threshold'
p55
F0.2
sg11
S'(0.2, HOME_CITY)'
p56
sg15
S'HOME_CITY'
p57
sbtp58
sg11
V(SimplePredicate: (lastSetElementPredicate, EMAILS), TfidfNGramSearchPredicate: (0.2, HOME_CITY))
p59
sbtp60
.(dp0
S'HOME_CITY'
p1
(dp2
S'TfidfNGramSearchPredicate'
p3
c__builtin__
set
p4
((lp5
tp6
Rp7
ss.